(dp0
S'METTS MARK'
p1
(dp2
S'poi_to_ratio'
p3
F0.0012391573729863693
sS'to_messages'
p4
I807
sS'deferred_ratio'
p5
F-0.000940831227685866
sS'deferral_payments'
p6
I-999
sS'poi_from_ratio'
p7
F1.3103448275862069
sS'expenses'
p8
I94299
sS'poi'
p9
I00
sS'long_term_incentive'
p10
I-999
sS'email_address'
p11
S'mark.metts@enron.com'
p12
sS'from_poi_to_this_person'
p13
I38
sS'deferred_income'
p14
I-999
sS'restricted_stock_deferred'
p15
I-999
sS'shared_receipt_with_poi'
p16
I702
sS'loan_advances'
p17
I-999
sS'from_messages'
p18
I29
sS'other'
p19
I1740
sS'director_fees'
p20
I-999
sS'bonus'
p21
I600000
sS'total_stock_value'
p22
I585062
sS'message_ratio'
p23
F27.82758620689655
sS'from_this_person_to_poi'
p24
I1
sS'restricted_stock'
p25
I585062
sS'salary'
p26
I365788
sS'total_payments'
p27
I1061827
sS'exercised_stock_options'
p28
I-999
ssS'BAXTER JOHN C'
p29
(dp30
g3
F1.0
sg4
I-999
sg5
F0.2299714447629475
sg6
I1295738
sg7
F1.0
sg8
I11200
sg9
I00
sg10
I1586055
sg11
I-999
sg13
I-999
sg14
I-1386055
sg15
I-999
sg16
I-999
sg17
I-999
sg18
I-999
sg19
I2660303
sg20
I-999
sg21
I1200000
sg22
I10623258
sg23
F1.0
sg24
I-999
sg25
I3942714
sg26
I267102
sg27
I5634343
sg28
I6680544
ssS'ELLIOTT STEVEN'
p31
(dp32
g3
F1.0
sg4
I-999
sg5
F-0.004718384697130712
sg6
I-999
sg7
F1.0
sg8
I78552
sg9
I00
sg10
I-999
sg11
S'steven.elliott@enron.com'
p33
sg13
I-999
sg14
I-400729
sg15
I-999
sg16
I-999
sg17
I-999
sg18
I-999
sg19
I12961
sg20
I-999
sg21
I350000
sg22
I6678735
sg23
F1.0
sg24
I-999
sg25
I1788391
sg26
I170941
sg27
I211725
sg28
I4890344
ssS'CORDES WILLIAM R'
p34
(dp35
g3
F0.0
sg4
I764
sg5
F1.0
sg6
I-999
sg7
F0.8333333333333334
sg8
I-999
sg9
I00
sg10
I-999
sg11
S'bill.cordes@enron.com'
p36
sg13
I10
sg14
I-999
sg15
I-999
sg16
I58
sg17
I-999
sg18
I12
sg19
I-999
sg20
I-999
sg21
I-999
sg22
I1038185
sg23
F63.666666666666664
sg24
I0
sg25
I386335
sg26
I-999
sg27
I-999
sg28
I651850
ssS'HANNON KEVIN P'
p37
(dp38
g3
F0.020095693779904306
sg4
I1045
sg5
F-0.0034605552130025424
sg6
I-999
sg7
F1.0
sg8
I34039
sg9
I01
sg10
I1617011
sg11
S'kevin.hannon@enron.com'
p39
sg13
I32
sg14
I-3117011
sg15
I-999
sg16
I1035
sg17
I-999
sg18
I32
sg19
I11350
sg20
I-999
sg21
I1500000
sg22
I6391065
sg23
F32.65625
sg24
I21
sg25
I853064
sg26
I243293
sg27
I288682
sg28
I5538001
ssS'MORDAUNT KRISTINA M'
p40
(dp41
g3
F1.0
sg4
I-999
sg5
F-0.0015894431698492654
sg6
I-999
sg7
F1.0
sg8
I35018
sg9
I00
sg10
I-999
sg11
S'kristina.mordaunt@enron.com'
p42
sg13
I-999
sg14
I-999
sg15
I-999
sg16
I-999
sg17
I-999
sg18
I-999
sg19
I1411
sg20
I-999
sg21
I325000
sg22
I208510
sg23
F1.0
sg24
I-999
sg25
I208510
sg26
I267093
sg27
I628522
sg28
I-999
ssS'MEYER ROCKFORD G'
p43
(dp44
g3
F0.0
sg4
I232
sg5
F1.0
sg6
I1848227
sg7
F0.0
sg8
I-999
sg9
I00
sg10
I-999
sg11
S'rockford.meyer@enron.com'
p45
sg13
I0
sg14
I-999
sg15
I-999
sg16
I22
sg17
I-999
sg18
I28
sg19
I-999
sg20
I-999
sg21
I-999
sg22
I955873
sg23
F8.285714285714286
sg24
I0
sg25
I462384
sg26
I-999
sg27
I1848227
sg28
I493489
ssS'MCMAHON JEFFREY'
p46
(dp47
g3
F0.011040339702760084
sg4
I2355
sg5
F-0.00024367214656623504
sg6
I-999
sg7
F1.2083333333333333
sg8
I137108
sg9
I00
sg10
I694862
sg11
S'jeffrey.mcmahon@enron.com'
p48
sg13
I58
sg14
I-999
sg15
I-999
sg16
I2228
sg17
I-999
sg18
I48
sg19
I297353
sg20
I-999
sg21
I2600000
sg22
I1662855
sg23
F49.0625
sg24
I26
sg25
I558801
sg26
I370448
sg27
I4099771
sg28
I1104054
ssS'HORTON STANLEY C'
p49
(dp50
g3
F0.006382978723404255
sg4
I2350
sg5
F1.0
sg6
I3131860
sg7
F0.04100652376514446
sg8
I-999
sg9
I00
sg10
I-999
sg11
S'stanley.horton@enron.com'
p51
sg13
I44
sg14
I-999
sg15
I-999
sg16
I1074
sg17
I-999
sg18
I1073
sg19
I-999
sg20
I-999
sg21
I-999
sg22
I7256648
sg23
F2.190121155638397
sg24
I15
sg25
I2046079
sg26
I-999
sg27
I3131860
sg28
I5210569
ssS'PIPER GREGORY F'
p52
(dp53
g3
F0.03877221324717286
sg4
I1238
sg5
F0.6503321480016735
sg6
I1130036
sg7
F0.2747747747747748
sg8
I43057
sg9
I00
sg10
I-999
sg11
S'greg.piper@enron.com'
p54
sg13
I61
sg14
I-33333
sg15
I-409554
sg16
I742
sg17
I-999
sg18
I222
sg19
I778
sg20
I-999
sg21
I400000
sg22
I880290
sg23
F5.576576576576577
sg24
I48
sg25
I409554
sg26
I197091
sg27
I1737629
sg28
I880290
ssS'HUMPHREY GENE E'
p55
(dp56
g3
F0.1328125
sg4
I128
sg5
F0.9562231632294956
sg6
I2964506
sg7
F0.5882352941176471
sg8
I4994
sg9
I00
sg10
I-999
sg11
S'gene.humphrey@enron.com'
p57
sg13
I10
sg14
I-999
sg15
I-999
sg16
I119
sg17
I-999
sg18
I17
sg19
I-999
sg20
I-999
sg21
I-999
sg22
I2282768
sg23
F7.529411764705882
sg24
I17
sg25
I-999
sg26
I130724
sg27
I3100224
sg28
I2282768
ssS'UMANOFF ADAM S'
p58
(dp59
g3
F0.0
sg4
I111
sg5
F-0.0008837102739501849
sg6
I-999
sg7
F0.6666666666666666
sg8
I53122
sg9
I00
sg10
I-999
sg11
S'adam.umanoff@enron.com'
p60
sg13
I12
sg14
I-999
sg15
I-999
sg16
I41
sg17
I-999
sg18
I18
sg19
I-999
sg20
I-999
sg21
I788750
sg22
I-999
sg23
F6.166666666666667
sg24
I0
sg25
I-999
sg26
I288589
sg27
I1130461
sg28
I-999
ssS'BLACHMAN JEREMY M'
p61
(dp62
g3
F0.0008080808080808081
sg4
I2475
sg5
F-0.000495822238545588
sg6
I-999
sg7
F1.7857142857142858
sg8
I84208
sg9
I00
sg10
I831809
sg11
S'jeremy.blachman@enron.com'
p63
sg13
I25
sg14
I-999
sg15
I-999
sg16
I2326
sg17
I-999
sg18
I14
sg19
I272
sg20
I-999
sg21
I850000
sg22
I954354
sg23
F176.78571428571428
sg24
I2
sg25
I189041
sg26
I248546
sg27
I2014835
sg28
I765313
ssS'SUNDE MARTIN'
p64
(dp65
g3
F0.004911220249338874
sg4
I2647
sg5
F-0.0006465772504480412
sg6
I-999
sg7
F0.9736842105263158
sg8
I-999
sg9
I00
sg10
I476451
sg11
S'marty.sunde@enron.com'
p66
sg13
I37
sg14
I-999
sg15
I-999
sg16
I2565
sg17
I-999
sg18
I38
sg19
I111122
sg20
I-999
sg21
I700000
sg22
I698920
sg23
F69.65789473684211
sg24
I13
sg25
I698920
sg26
I257486
sg27
I1545059
sg28
I-999
ssS'GIBBS DANA R'
p67
(dp68
g3
F0.0
sg4
I169
sg5
F0.5220884780687869
sg6
I504610
sg7
F0.0
sg8
I-999
sg9
I00
sg10
I461912
sg11
S'dana.gibbs@enron.com'
p69
sg13
I0
sg14
I-999
sg15
I-999
sg16
I23
sg17
I-999
sg18
I12
sg19
I-999
sg20
I-999
sg21
I-999
sg22
I2218275
sg23
F14.083333333333334
sg24
I0
sg25
I-999
sg26
I-999
sg27
I966522
sg28
I2218275
ssS'LOWRY CHARLES P'
p70
(dp71
g3
F1.0
sg4
I-999
sg5
F1.0
sg6
I-999
sg7
F1.0
sg8
I-999
sg9
I00
sg10
I-999
sg11
I-999
sg13
I-999
sg14
I-999
sg15
I-153686
sg16
I-999
sg17
I-999
sg18
I-999
sg19
I-999
sg20
I-999
sg21
I-999
sg22
I372205
sg23
F1.0
sg24
I-999
sg25
I153686
sg26
I-999
sg27
I-999
sg28
I372205
ssS'COLWELL WESLEY'
p72
(dp73
g3
F0.006257110352673493
sg4
I1758
sg5
F0.01852592421615412
sg6
I27610
sg7
F6.0
sg8
I16514
sg9
I01
sg10
I-999
sg11
S'wes.colwell@enron.com'
p74
sg13
I240
sg14
I-144062
sg15
I-999
sg16
I1132
sg17
I-999
sg18
I40
sg19
I101740
sg20
I-999
sg21
I1200000
sg22
I698242
sg23
F43.95
sg24
I11
sg25
I698242
sg26
I288542
sg27
I1490344
sg28
I-999
ssS'MULLER MARK S'
p75
(dp76
g3
F0.0
sg4
I136
sg5
F0.2632434643839766
sg6
I842924
sg7
F0.75
sg8
I-999
sg9
I00
sg10
I1725545
sg11
S's..muller@enron.com'
p77
sg13
I12
sg14
I-719000
sg15
I-999
sg16
I114
sg17
I-999
sg18
I16
sg19
I947
sg20
I-999
sg21
I1100000
sg22
I1416848
sg23
F8.5
sg24
I0
sg25
I360528
sg26
I251654
sg27
I3202070
sg28
I1056320
ssS'JACKSON CHARLENE R'
p78
(dp79
g3
F0.07364341085271318
sg4
I258
sg5
F-0.0018124947838613578
sg6
I-999
sg7
F0.44642857142857145
sg8
I10181
sg9
I00
sg10
I-999
sg11
S'charlene.jackson@enron.com'
p80
sg13
I25
sg14
I-999
sg15
I-999
sg16
I117
sg17
I-999
sg18
I56
sg19
I2435
sg20
I-999
sg21
I250000
sg22
I725735
sg23
F4.607142857142857
sg24
I19
sg25
I540672
sg26
I288558
sg27
I551174
sg28
I185063
ssS'WESTFAHL RICHARD K'
p81
(dp82
g3
F1.0
sg4
I-999
sg5
F-0.0013107913952252555
sg6
I-999
sg7
F1.0
sg8
I51870
sg9
I00
sg10
I256191
sg11
S'dick.westfahl@enron.com'
p83
sg13
I-999
sg14
I-10800
sg15
I-999
sg16
I-999
sg17
I-999
sg18
I-999
sg19
I401130
sg20
I-999
sg21
I-999
sg22
I384930
sg23
F1.0
sg24
I-999
sg25
I384930
sg26
I63744
sg27
I762135
sg28
I-999
ssS'WALTERS GARETH W'
p84
(dp85
g3
F1.0
sg4
I-999
sg5
F0.6134881592495138
sg6
I53625
sg7
F1.0
sg8
I33785
sg9
I00
sg10
I-999
sg11
I-999
sg13
I-999
sg14
I-999
sg15
I-999
sg16
I-999
sg17
I-999
sg18
I-999
sg19
I-999
sg20
I-999
sg21
I-999
sg22
I1030329
sg23
F1.0
sg24
I-999
sg25
I-999
sg26
I-999
sg27
I87410
sg28
I1030329
ssS'WALLS JR ROBERT H'
p86
(dp87
g3
F0.0
sg4
I671
sg5
F-0.0005553764217969958
sg6
I-999
sg7
F0.11643835616438356
sg8
I50936
sg9
I00
sg10
I540751
sg11
S'rob.walls@enron.com'
p88
sg13
I17
sg14
I-999
sg15
I-999
sg16
I215
sg17
I-999
sg18
I146
sg19
I2
sg20
I-999
sg21
I850000
sg22
I5898997
sg23
F4.595890410958904
sg24
I0
sg25
I1552453
sg26
I357091
sg27
I1798780
sg28
I4346544
ssS'KITCHEN LOUISE'
p89
(dp90
g3
F0.023359422034918725
sg4
I8305
sg5
F-0.0002878016191217816
sg6
I-999
sg7
F0.14525462962962962
sg8
I5774
sg9
I00
sg10
I-999
sg11
S'louise.kitchen@enron.com'
p91
sg13
I251
sg14
I-999
sg15
I-999
sg16
I3669
sg17
I-999
sg18
I1728
sg19
I93925
sg20
I-999
sg21
I3100000
sg22
I547143
sg23
F4.8061342592592595
sg24
I194
sg25
I466101
sg26
I271442
sg27
I3471141
sg28
I81042
ssS'CHAN RONNIE'
p92
(dp93
g3
F1.0
sg4
I-999
sg5
F1.0
sg6
I-999
sg7
F1.0
sg8
I-999
sg9
I00
sg10
I-999
sg11
I-999
sg13
I-999
sg14
I-98784
sg15
I-32460
sg16
I-999
sg17
I-999
sg18
I-999
sg19
I-999
sg20
I98784
sg21
I-999
sg22
I-999
sg23
F1.0
sg24
I-999
sg25
I32460
sg26
I-999
sg27
I-999
sg28
I-999
ssS'BELFER ROBERT'
p94
(dp95
g3
F1.0
sg4
I-999
sg5
F-1.0
sg6
I-102500
sg7
F1.0
sg8
I-999
sg9
I00
sg10
I-999
sg11
I-999
sg13
I-999
sg14
I-999
sg15
I44093
sg16
I-999
sg17
I-999
sg18
I-999
sg19
I-999
sg20
I3285
sg21
I-999
sg22
I-44093
sg23
F1.0
sg24
I-999
sg25
I-999
sg26
I-999
sg27
I102500
sg28
I3285
ssS'SHANKMAN JEFFREY A'
p96
(dp97
g3
F0.025768394908413535
sg4
I3221
sg5
F-0.0003287587924054415
sg6
I-999
sg7
F0.0350615441999254
sg8
I178979
sg9
I00
sg10
I554422
sg11
S'jeffrey.shankman@enron.com'
p98
sg13
I94
sg14
I-999
sg15
I-999
sg16
I1730
sg17
I-999
sg18
I2681
sg19
I1191
sg20
I-999
sg21
I2000000
sg22
I2072035
sg23
F1.2014173815740394
sg24
I83
sg25
I630137
sg26
I304110
sg27
I3038702
sg28
I1441898
ssS'WODRASKA JOHN'
p99
(dp100
g3
F1.0
sg4
I-999
sg5
F-0.005269459814434839
sg6
I-999
sg7
F1.0
sg8
I-999
sg9
I00
sg10
I-999
sg11
S'john.wodraska@enron.com'
p101
sg13
I-999
sg14
I-999
sg15
I-999
sg16
I-999
sg17
I-999
sg18
I-999
sg19
I189583
sg20
I-999
sg21
I-999
sg22
I-999
sg23
F1.0
sg24
I-999
sg25
I-999
sg26
I-999
sg27
I189583
sg28
I-999
ssS'BERGSIEKER RICHARD P'
p102
(dp103
g3
F0.0
sg4
I383
sg5
F-0.0016142845600710996
sg6
I-999
sg7
F0.06779661016949153
sg8
I59175
sg9
I00
sg10
I180250
sg11
S'rick.bergsieker@enron.com'
p104
sg13
I4
sg14
I-485813
sg15
I-999
sg16
I233
sg17
I-999
sg18
I59
sg19
I427316
sg20
I-999
sg21
I250000
sg22
I659249
sg23
F6.491525423728813
sg24
I0
sg25
I659249
sg26
I187922
sg27
I618850
sg28
I-999
ssS'URQUHART JOHN A'
p105
(dp106
g3
F1.0
sg4
I-999
sg5
F-0.004369008466867259
sg6
I-999
sg7
F1.0
sg8
I228656
sg9
I00
sg10
I-999
sg11
I-999
sg13
I-999
sg14
I-36666
sg15
I-999
sg16
I-999
sg17
I-999
sg18
I-999
sg19
I-999
sg20
I36666
sg21
I-999
sg22
I-999
sg23
F1.0
sg24
I-999
sg25
I-999
sg26
I-999
sg27
I228656
sg28
I-999
ssS'BIBI PHILIPPE A'
p107
(dp108
g3
F0.004978220286247666
sg4
I1607
sg5
F-0.00048788992734395947
sg6
I-999
sg7
F0.575
sg8
I38559
sg9
I00
sg10
I369721
sg11
S'philippe.bibi@enron.com'
p109
sg13
I23
sg14
I-999
sg15
I-999
sg16
I1336
sg17
I-999
sg18
I40
sg19
I425688
sg20
I-999
sg21
I1000000
sg22
I1843816
sg23
F40.175
sg24
I8
sg25
I378082
sg26
I213625
sg27
I2047593
sg28
I1465734
ssS'PIRO JIM'
p110
(dp111
g3
F0.017241379310344827
sg4
I58
sg5
F1.0
sg6
I-999
sg7
F0.0
sg8
I-999
sg9
I00
sg10
I-999
sg11
S'jim.piro@enron.com'
p112
sg13
I0
sg14
I-999
sg15
I-999
sg16
I3
sg17
I-999
sg18
I16
sg19
I-999
sg20
I-999
sg21
I-999
sg22
I47304
sg23
F3.625
sg24
I1
sg25
I47304
sg26
I-999
sg27
I-999
sg28
I-999
ssS'RIEKER PAULA H'
p113
(dp114
g3
F0.03614457831325301
sg4
I1328
sg5
F0.19532162678555182
sg6
I214678
sg7
F0.4268292682926829
sg8
I33271
sg9
I01
sg10
I-999
sg11
S'paula.rieker@enron.com'
p115
sg13
I35
sg14
I-100000
sg15
I-999
sg16
I1258
sg17
I-999
sg18
I82
sg19
I1950
sg20
I-999
sg21
I700000
sg22
I1918887
sg23
F16.195121951219512
sg24
I48
sg25
I283649
sg26
I249201
sg27
I1099100
sg28
I1635238
ssS'WHALEY DAVID A'
p116
(dp117
g3
F1.0
sg4
I-999
sg5
F1.0
sg6
I-999
sg7
F1.0
sg8
I-999
sg9
I00
sg10
I-999
sg11
I-999
sg13
I-999
sg14
I-999
sg15
I-999
sg16
I-999
sg17
I-999
sg18
I-999
sg19
I-999
sg20
I-999
sg21
I-999
sg22
I98718
sg23
F1.0
sg24
I-999
sg25
I-999
sg26
I-999
sg27
I-999
sg28
I98718
ssS'BECK SALLY W'
p118
(dp119
g3
F0.052768284347231714
sg4
I7315
sg5
F-0.001030887409345887
sg6
I-999
sg7
F0.033156804052498275
sg8
I37172
sg9
I00
sg10
I-999
sg11
S'sally.beck@enron.com'
p120
sg13
I144
sg14
I-999
sg15
I-999
sg16
I2639
sg17
I-999
sg18
I4343
sg19
I566
sg20
I-999
sg21
I700000
sg22
I126027
sg23
F1.6843195947501728
sg24
I386
sg25
I126027
sg26
I231330
sg27
I969068
sg28
I-999
ssS'HAUG DAVID L'
p121
(dp122
g3
F0.012216404886561954
sg4
I573
sg5
F-2.103157894736842
sg6
I-999
sg7
F0.21052631578947367
sg8
I475
sg9
I00
sg10
I-999
sg11
S'david.haug@enron.com'
p123
sg13
I4
sg14
I-999
sg15
I-999
sg16
I471
sg17
I-999
sg18
I19
sg19
I-999
sg20
I-999
sg21
I-999
sg22
I2217299
sg23
F30.157894736842106
sg24
I7
sg25
I2217299
sg26
I-999
sg27
I475
sg28
I-999
ssS'ECHOLS JOHN B'
p124
(dp125
g3
F1.0
sg4
I-999
sg5
F-0.00037105489532463404
sg6
I-999
sg7
F1.0
sg8
I21530
sg9
I00
sg10
I2234774
sg11
S'john.echols@enron.com'
p126
sg13
I-999
sg14
I-999
sg15
I-999
sg16
I-999
sg17
I-999
sg18
I-999
sg19
I53775
sg20
I-999
sg21
I200000
sg22
I1008941
sg23
F1.0
sg24
I-999
sg25
I407503
sg26
I182245
sg27
I2692324
sg28
I601438
ssS'MENDELSOHN JOHN'
p127
(dp128
g3
F1.0
sg4
I-999
sg5
F-6.75
sg6
I-999
sg7
F1.0
sg8
I148
sg9
I00
sg10
I-999
sg11
I-999
sg13
I-999
sg14
I-103750
sg15
I-999
sg16
I-999
sg17
I-999
sg18
I-999
sg19
I-999
sg20
I103750
sg21
I-999
sg22
I-999
sg23
F1.0
sg24
I-999
sg25
I-999
sg26
I-999
sg27
I148
sg28
I-999
ssS'HICKERSON GARY J'
p129
(dp130
g3
F0.0007575757575757576
sg4
I1320
sg5
F-0.0004798741087022936
sg6
I-999
sg7
F1.4814814814814814
sg8
I98849
sg9
I00
sg10
I69223
sg11
S'gary.hickerson@enron.com'
p131
sg13
I40
sg14
I-999
sg15
I-999
sg16
I900
sg17
I-999
sg18
I27
sg19
I1936
sg20
I-999
sg21
I1700000
sg22
I441096
sg23
F48.888888888888886
sg24
I1
sg25
I441096
sg26
I211788
sg27
I2081796
sg28
I-999
ssS'CLINE KENNETH W'
p132
(dp133
g3
F1.0
sg4
I-999
sg5
F1.0
sg6
I-999
sg7
F1.0
sg8
I-999
sg9
I00
sg10
I-999
sg11
I-999
sg13
I-999
sg14
I-999
sg15
I-472568
sg16
I-999
sg17
I-999
sg18
I-999
sg19
I-999
sg20
I-999
sg21
I-999
sg22
I189518
sg23
F1.0
sg24
I-999
sg25
I662086
sg26
I-999
sg27
I-999
sg28
I-999
ssS'LEWIS RICHARD'
p134
(dp135
g3
F0.0
sg4
I952
sg5
F1.0
sg6
I-999
sg7
F0.38461538461538464
sg8
I-999
sg9
I00
sg10
I-999
sg11
S'richard.lewis@enron.com'
p136
sg13
I10
sg14
I-999
sg15
I-999
sg16
I739
sg17
I-999
sg18
I26
sg19
I-999
sg20
I-999
sg21
I-999
sg22
I850477
sg23
F36.61538461538461
sg24
I0
sg25
I-999
sg26
I-999
sg27
I-999
sg28
I850477
ssS'HAYES ROBERT E'
p137
(dp138
g3
F0.0
sg4
I504
sg5
F1.0
sg6
I7961
sg7
F1.3333333333333333
sg8
I-999
sg9
I00
sg10
I-999
sg11
S'robert.hayes@enron.com'
p139
sg13
I16
sg14
I-999
sg15
I-999
sg16
I50
sg17
I-999
sg18
I12
sg19
I-999
sg20
I-999
sg21
I-999
sg22
I151418
sg23
F42.0
sg24
I0
sg25
I151418
sg26
I-999
sg27
I7961
sg28
I-999
ssS'KOPPER MICHAEL J'
p140
(dp141
g3
F1.0
sg4
I-999
sg5
F-0.0003766099225970477
sg6
I-999
sg7
F1.0
sg8
I118134
sg9
I01
sg10
I602671
sg11
S'michael.kopper@enron.com'
p142
sg13
I-999
sg14
I-999
sg15
I-999
sg16
I-999
sg17
I-999
sg18
I-999
sg19
I907502
sg20
I-999
sg21
I800000
sg22
I985032
sg23
F1.0
sg24
I-999
sg25
I985032
sg26
I224305
sg27
I2652612
sg28
I-999
ssS'LEFF DANIEL P'
p143
(dp144
g3
F0.004961020552799433
sg4
I2822
sg5
F-0.000374967908152005
sg6
I-999
sg7
F1.0634920634920635
sg8
I-999
sg9
I00
sg10
I1387399
sg11
S'dan.leff@enron.com'
p145
sg13
I67
sg14
I-999
sg15
I-999
sg16
I2672
sg17
I-999
sg18
I63
sg19
I3083
sg20
I-999
sg21
I1000000
sg22
I360528
sg23
F44.79365079365079
sg24
I14
sg25
I360528
sg26
I273746
sg27
I2664228
sg28
I-999
ssS'LAVORATO JOHN J'
p146
(dp147
g3
F0.05661936905909905
sg4
I7259
sg5
F-9.58203802371377e-05
sg6
I-999
sg7
F0.20425531914893616
sg8
I49537
sg9
I00
sg10
I2035380
sg11
S'john.lavorato@enron.com'
p148
sg13
I528
sg14
I-999
sg15
I-999
sg16
I3962
sg17
I-999
sg18
I2585
sg19
I1552
sg20
I-999
sg21
I8000000
sg22
I5167144
sg23
F2.8081237911025143
sg24
I411
sg25
I1008149
sg26
I339288
sg27
I10425757
sg28
I4158995
ssS'BERBERIAN DAVID'
p149
(dp150
g3
F1.0
sg4
I-999
sg5
F-0.004372488773339636
sg6
I-999
sg7
F1.0
sg8
I11892
sg9
I00
sg10
I-999
sg11
S'david.berberian@enron.com'
p151
sg13
I-999
sg14
I-999
sg15
I-999
sg16
I-999
sg17
I-999
sg18
I-999
sg19
I-999
sg20
I-999
sg21
I-999
sg22
I2493616
sg23
F1.0
sg24
I-999
sg25
I869220
sg26
I216582
sg27
I228474
sg28
I1624396
ssS'DETMERING TIMOTHY J'
p152
(dp153
g3
F1.0
sg4
I-999
sg5
F0.7266473128045141
sg6
I875307
sg7
F1.0
sg8
I52255
sg9
I00
sg10
I415657
sg11
S'timothy.detmering@enron.com'
p154
sg13
I-999
sg14
I-775241
sg15
I-315068
sg16
I-999
sg17
I-999
sg18
I-999
sg19
I1105
sg20
I-999
sg21
I425000
sg22
I2027865
sg23
F1.0
sg24
I-999
sg25
I315068
sg26
I210500
sg27
I1204583
sg28
I2027865
ssS'WAKEHAM JOHN'
p155
(dp156
g3
F1.0
sg4
I-999
sg5
F-0.004688577985741842
sg6
I-999
sg7
F1.0
sg8
I103773
sg9
I00
sg10
I-999
sg11
I-999
sg13
I-999
sg14
I-999
sg15
I-999
sg16
I-999
sg17
I-999
sg18
I-999
sg19
I-999
sg20
I109298
sg21
I-999
sg22
I-999
sg23
F1.0
sg24
I-999
sg25
I-999
sg26
I-999
sg27
I213071
sg28
I-999
ssS'POWERS WILLIAM'
p157
(dp158
g3
F0.0
sg4
I653
sg5
F1.0
sg6
I-999
sg7
F0.0
sg8
I-999
sg9
I00
sg10
I-999
sg11
S'ken.powers@enron.com'
p159
sg13
I0
sg14
I-17500
sg15
I-999
sg16
I12
sg17
I-999
sg18
I26
sg19
I-999
sg20
I17500
sg21
I-999
sg22
I-999
sg23
F25.115384615384617
sg24
I0
sg25
I-999
sg26
I-999
sg27
I-999
sg28
I-999
ssS'GOLD JOSEPH'
p160
(dp161
g3
F1.0
sg4
I-999
sg5
F-0.00046530627073558913
sg6
I-999
sg7
F1.0
sg8
I-999
sg9
I00
sg10
I304805
sg11
S'joe.gold@enron.com'
p162
sg13
I-999
sg14
I-999
sg15
I-999
sg16
I-999
sg17
I-999
sg18
I-999
sg19
I819288
sg20
I-999
sg21
I750000
sg22
I877611
sg23
F1.0
sg24
I-999
sg25
I441096
sg26
I272880
sg27
I2146973
sg28
I436515
ssS'BANNANTINE JAMES M'
p163
(dp164
g3
F0.0
sg4
I566
sg5
F-0.0010903768512667035
sg6
I-999
sg7
F1.3448275862068966
sg8
I56301
sg9
I00
sg10
I-999
sg11
S'james.bannantine@enron.com'
p165
sg13
I39
sg14
I-5104
sg15
I-560222
sg16
I465
sg17
I-999
sg18
I29
sg19
I864523
sg20
I-999
sg21
I-999
sg22
I5243487
sg23
F19.517241379310345
sg24
I0
sg25
I1757552
sg26
I477
sg27
I916197
sg28
I4046157
ssS'DUNCAN JOHN H'
p166
(dp167
g3
F1.0
sg4
I-999
sg5
F-0.012891653331956847
sg6
I-999
sg7
F1.0
sg8
I-999
sg9
I00
sg10
I-999
sg11
I-999
sg13
I-999
sg14
I-25000
sg15
I-999
sg16
I-999
sg17
I-999
sg18
I-999
sg19
I-999
sg20
I102492
sg21
I-999
sg22
I371750
sg23
F1.0
sg24
I-999
sg25
I-999
sg26
I-999
sg27
I77492
sg28
I371750
ssS'SHAPIRO RICHARD S'
p168
(dp169
g3
F0.004290712258234867
sg4
I15149
sg5
F-0.0009446379738791998
sg6
I-999
sg7
F0.060905349794238686
sg8
I137767
sg9
I00
sg10
I-999
sg11
S'richard.shapiro@enron.com'
p170
sg13
I74
sg14
I-999
sg15
I-999
sg16
I4527
sg17
I-999
sg18
I1215
sg19
I705
sg20
I-999
sg21
I650000
sg22
I987001
sg23
F12.468312757201646
sg24
I65
sg25
I379164
sg26
I269076
sg27
I1057548
sg28
I607837
ssS'SHERRIFF JOHN R'
p171
(dp172
g3
F0.0072168183244430495
sg4
I3187
sg5
F-0.0002304292026457609
sg6
I-999
sg7
F0.30434782608695654
sg8
I-999
sg9
I00
sg10
I554422
sg11
S'john.sherriff@enron.com'
p173
sg13
I28
sg14
I-999
sg15
I-999
sg16
I2103
sg17
I-999
sg18
I92
sg19
I1852186
sg20
I-999
sg21
I1500000
sg22
I3128982
sg23
F34.641304347826086
sg24
I23
sg25
I1293424
sg26
I428780
sg27
I4335388
sg28
I1835558
ssS'SHELBY REX'
p174
(dp175
g3
F0.06222222222222222
sg4
I225
sg5
F-0.000498531602362411
sg6
I-999
sg7
F0.3333333333333333
sg8
I22884
sg9
I01
sg10
I-999
sg11
S'rex.shelby@enron.com'
p176
sg13
I13
sg14
I-4167
sg15
I-999
sg16
I91
sg17
I-999
sg18
I39
sg19
I1573324
sg20
I-999
sg21
I200000
sg22
I2493616
sg23
F5.769230769230769
sg24
I14
sg25
I869220
sg26
I211844
sg27
I2003885
sg28
I1624396
ssS'LEMAISTRE CHARLES'
p177
(dp178
g3
F1.0
sg4
I-999
sg5
F-0.011418186805650802
sg6
I-999
sg7
F1.0
sg8
I-999
sg9
I00
sg10
I-999
sg11
I-999
sg13
I-999
sg14
I-25000
sg15
I-999
sg16
I-999
sg17
I-999
sg18
I-999
sg19
I-999
sg20
I112492
sg21
I-999
sg22
I412878
sg23
F1.0
sg24
I-999
sg25
I-999
sg26
I-999
sg27
I87492
sg28
I412878
ssS'DEFFNER JOSEPH M'
p179
(dp180
g3
F0.0056022408963585435
sg4
I714
sg5
F-0.0008265426935363369
sg6
I-999
sg7
F1.554054054054054
sg8
I41626
sg9
I00
sg10
I335349
sg11
S'joseph.deffner@enron.com'
p181
sg13
I115
sg14
I-999
sg15
I-999
sg16
I552
sg17
I-999
sg18
I74
sg19
I25553
sg20
I-999
sg21
I600000
sg22
I159211
sg23
F9.64864864864865
sg24
I4
sg25
I141833
sg26
I206121
sg27
I1208649
sg28
I17378
ssS'KISHKILL JOSEPH G'
p182
(dp183
g3
F1.0
sg4
I-999
sg5
F-0.0014172303431995643
sg6
I-999
sg7
F1.0
sg8
I116335
sg9
I00
sg10
I-999
sg11
S'joe.kishkill@enron.com'
p184
sg13
I-999
sg14
I-51042
sg15
I-999
sg16
I-999
sg17
I-999
sg18
I-999
sg19
I465357
sg20
I-999
sg21
I-999
sg22
I1034346
sg23
F1.0
sg24
I-999
sg25
I1034346
sg26
I174246
sg27
I704896
sg28
I-999
ssS'WHALLEY LAWRENCE G'
p185
(dp186
g3
F0.003987373317826882
sg4
I6019
sg5
F-0.00021357224920439527
sg6
I-999
sg7
F0.3345323741007194
sg8
I57838
sg9
I00
sg10
I808346
sg11
S'greg.whalley@enron.com'
p187
sg13
I186
sg14
I-999
sg15
I-999
sg16
I3920
sg17
I-999
sg18
I556
sg19
I301026
sg20
I-999
sg21
I3000000
sg22
I6079137
sg23
F10.825539568345324
sg24
I24
sg25
I2796177
sg26
I510364
sg27
I4677574
sg28
I3282960
ssS'MCCARTY DANNY J'
p188
(dp189
g3
F0.0013956734124214933
sg4
I1433
sg5
F1.0
sg6
I-999
sg7
F0.11627906976744186
sg8
I-999
sg9
I00
sg10
I-999
sg11
S'danny.mccarty@enron.com'
p190
sg13
I25
sg14
I-999
sg15
I-999
sg16
I508
sg17
I-999
sg18
I215
sg19
I-999
sg20
I-999
sg21
I-999
sg22
I758931
sg23
F6.665116279069768
sg24
I2
sg25
I94556
sg26
I-999
sg27
I-999
sg28
I664375
ssS'MCCONNELL MICHAEL S'
p191
(dp192
g3
F0.058275758486031844
sg4
I3329
sg5
F-0.00047540549852381596
sg6
I-999
sg7
F0.03355215171407731
sg8
I81364
sg9
I00
sg10
I554422
sg11
S'mike.mcconnell@enron.com'
p193
sg13
I92
sg14
I-999
sg15
I-999
sg16
I2189
sg17
I-999
sg18
I2742
sg19
I540
sg20
I-999
sg21
I1100000
sg22
I3101279
sg23
F1.2140773158278628
sg24
I194
sg25
I1478269
sg26
I365038
sg27
I2101364
sg28
I1623010
ssS'DELAINEY DAVID W'
p194
(dp195
g3
F0.19689621726479145
sg4
I3093
sg5
F-0.00021040531139670163
sg6
I-999
sg7
F0.021505376344086023
sg8
I86174
sg9
I01
sg10
I1294981
sg11
S'david.delainey@enron.com'
p196
sg13
I66
sg14
I-999
sg15
I-999
sg16
I2097
sg17
I-999
sg18
I3069
sg19
I1661
sg20
I-999
sg21
I3000000
sg22
I3614261
sg23
F1.007820136852395
sg24
I609
sg25
I1323148
sg26
I365163
sg27
I4747979
sg28
I2291113
ssS'SULLIVAN-SHAKLOVITZ COLLEEN'
p197
(dp198
g3
F1.0
sg4
I-999
sg5
F0.18211027901968868
sg6
I181993
sg7
F1.0
sg8
I-999
sg9
I00
sg10
I554422
sg11
I-999
sg13
I-999
sg14
I-999
sg15
I-999
sg16
I-999
sg17
I-999
sg18
I-999
sg19
I162
sg20
I-999
sg21
I100000
sg22
I1362375
sg23
F1.0
sg24
I-999
sg25
I-999
sg26
I162779
sg27
I999356
sg28
I1362375
ssS'WROBEL BRUCE'
p199
(dp200
g3
F1.0
sg4
I-999
sg5
F1.0
sg6
I-999
sg7
F1.0
sg8
I-999
sg9
I00
sg10
I-999
sg11
I-999
sg13
I-999
sg14
I-999
sg15
I-999
sg16
I-999
sg17
I-999
sg18
I-999
sg19
I-999
sg20
I-999
sg21
I-999
sg22
I139130
sg23
F1.0
sg24
I-999
sg25
I-999
sg26
I-999
sg27
I-999
sg28
I139130
ssS'LINDHOLM TOD A'
p201
(dp202
g3
F1.0
sg4
I-999
sg5
F0.23299185170723688
sg6
I204075
sg7
F1.0
sg8
I57727
sg9
I00
sg10
I175000
sg11
S'tod.lindholm@enron.com'
p203
sg13
I-999
sg14
I-999
sg15
I-999
sg16
I-999
sg17
I-999
sg18
I-999
sg19
I2630
sg20
I-999
sg21
I200000
sg22
I3064208
sg23
F1.0
sg24
I-999
sg25
I514847
sg26
I236457
sg27
I875889
sg28
I2549361
ssS'MEYER JEROME J'
p204
(dp205
g3
F1.0
sg4
I-999
sg5
F-0.46443514644351463
sg6
I-999
sg7
F1.0
sg8
I2151
sg9
I00
sg10
I-999
sg11
I-999
sg13
I-999
sg14
I-38346
sg15
I-999
sg16
I-999
sg17
I-999
sg18
I-999
sg19
I-999
sg20
I38346
sg21
I-999
sg22
I-999
sg23
F1.0
sg24
I-999
sg25
I-999
sg26
I-999
sg27
I2151
sg28
I-999
ssS'LAY KENNETH L'
p206
(dp207
g3
F0.003744441844137608
sg4
I4273
sg5
F0.001959360811005097
sg6
I202911
sg7
F3.4166666666666665
sg8
I99832
sg9
I01
sg10
I3600000
sg11
S'kenneth.lay@enron.com'
p208
sg13
I123
sg14
I-300000
sg15
I-999
sg16
I2411
sg17
I81525000
sg18
I36
sg19
I10359729
sg20
I-999
sg21
I7000000
sg22
I49110078
sg23
F118.69444444444444
sg24
I16
sg25
I14761694
sg26
I1072321
sg27
I103559793
sg28
I34348384
ssS'BUTTS ROBERT H'
p209
(dp210
g3
F1.0
sg4
I-999
sg5
F-0.0007856355311729798
sg6
I-999
sg7
F1.0
sg8
I9410
sg9
I00
sg10
I175000
sg11
S'bob.butts@enron.com'
p211
sg13
I-999
sg14
I-75000
sg15
I-999
sg16
I-999
sg17
I-999
sg18
I-999
sg19
I150656
sg20
I-999
sg21
I750000
sg22
I417619
sg23
F1.0
sg24
I-999
sg25
I417619
sg26
I261516
sg27
I1271582
sg28
I-999
ssS'OLSON CINDY K'
p212
(dp213
g3
F0.01266891891891892
sg4
I1184
sg5
F0.05880639276247638
sg6
I77716
sg7
F0.38461538461538464
sg8
I63791
sg9
I00
sg10
I100000
sg11
S'cindy.olson@enron.com'
p214
sg13
I20
sg14
I-999
sg15
I-999
sg16
I856
sg17
I-999
sg18
I52
sg19
I972
sg20
I-999
sg21
I750000
sg22
I2606763
sg23
F22.76923076923077
sg24
I15
sg25
I969729
sg26
I329078
sg27
I1321557
sg28
I1637034
ssS'MCDONALD REBECCA'
p215
(dp216
g3
F0.0011185682326621924
sg4
I894
sg5
F1.0
sg6
I-999
sg7
F4.153846153846154
sg8
I-999
sg9
I00
sg10
I-999
sg11
S'rebecca.mcdonald@enron.com'
p217
sg13
I54
sg14
I-999
sg15
I-999
sg16
I720
sg17
I-999
sg18
I13
sg19
I-999
sg20
I-999
sg21
I-999
sg22
I1691366
sg23
F68.76923076923077
sg24
I1
sg25
I934065
sg26
I-999
sg27
I-999
sg28
I757301
ssS'CUMBERLAND MICHAEL S'
p218
(dp219
g3
F1.0
sg4
I-999
sg5
F-0.0012364534702384784
sg6
I-999
sg7
F1.0
sg8
I22344
sg9
I00
sg10
I275000
sg11
I-999
sg13
I-999
sg14
I-999
sg15
I-999
sg16
I-999
sg17
I-999
sg18
I-999
sg19
I713
sg20
I-999
sg21
I325000
sg22
I207940
sg23
F1.0
sg24
I-999
sg25
I207940
sg26
I184899
sg27
I807956
sg28
I-999
ssS'GAHN ROBERT S'
p220
(dp221
g3
F1.0
sg4
I-999
sg5
F0.08119389063775213
sg6
I73122
sg7
F1.0
sg8
I50080
sg9
I00
sg10
I-999
sg11
I-999
sg13
I-999
sg14
I-1042
sg15
I-999
sg16
I-999
sg17
I-999
sg18
I-999
sg19
I76547
sg20
I-999
sg21
I509870
sg22
I318607
sg23
F1.0
sg24
I-999
sg25
I235370
sg26
I192008
sg27
I900585
sg28
I83237
ssS'MCCLELLAN GEORGE'
p222
(dp223
g3
F0.0
sg4
I1744
sg5
F-0.0007575280774483361
sg6
I-999
sg7
F1.0612244897959184
sg8
I228763
sg9
I00
sg10
I-999
sg11
S'george.mcclellan@enron.com'
p224
sg13
I52
sg14
I-125000
sg15
I-999
sg16
I1469
sg17
I-999
sg18
I49
sg19
I51587
sg20
I-999
sg21
I900000
sg22
I947861
sg23
F35.59183673469388
sg24
I0
sg25
I441096
sg26
I263413
sg27
I1318763
sg28
I506765
ssS'HERMANN ROBERT J'
p225
(dp226
g3
F1.0
sg4
I-999
sg5
F-0.000769965339998659
sg6
I-999
sg7
F1.0
sg8
I48357
sg9
I00
sg10
I150000
sg11
S'robert.hermann@enron.com'
p227
sg13
I-999
sg14
I-280000
sg15
I-999
sg16
I-999
sg17
I-999
sg18
I-999
sg19
I416441
sg20
I-999
sg21
I700000
sg22
I668132
sg23
F1.0
sg24
I-999
sg25
I480632
sg26
I262663
sg27
I1297461
sg28
I187500
ssS'SCRIMSHAW MATTHEW'
p228
(dp229
g3
F1.0
sg4
I-999
sg5
F1.0
sg6
I-999
sg7
F1.0
sg8
I-999
sg9
I00
sg10
I-999
sg11
S'matthew.scrimshaw@enron.com'
p230
sg13
I-999
sg14
I-999
sg15
I-999
sg16
I-999
sg17
I-999
sg18
I-999
sg19
I-999
sg20
I-999
sg21
I-999
sg22
I759557
sg23
F1.0
sg24
I-999
sg25
I-999
sg26
I-999
sg27
I-999
sg28
I759557
ssS'GATHMANN WILLIAM D'
p231
(dp232
g3
F1.0
sg4
I-999
sg5
F1.0
sg6
I-999
sg7
F1.0
sg8
I-999
sg9
I00
sg10
I-999
sg11
I-999
sg13
I-999
sg14
I-999
sg15
I-72419
sg16
I-999
sg17
I-999
sg18
I-999
sg19
I-999
sg20
I-999
sg21
I-999
sg22
I1945360
sg23
F1.0
sg24
I-999
sg25
I264013
sg26
I-999
sg27
I-999
sg28
I1753766
ssS'HAEDICKE MARK E'
p233
(dp234
g3
F0.015215764529807932
sg4
I4009
sg5
F0.5590802435304925
sg6
I2157527
sg7
F0.09273570324574962
sg8
I76169
sg9
I00
sg10
I983346
sg11
S'mark.haedicke@enron.com'
p235
sg13
I180
sg14
I-934484
sg15
I-329825
sg16
I1847
sg17
I-999
sg18
I1941
sg19
I52382
sg20
I-999
sg21
I1150000
sg22
I803094
sg23
F2.06543019062339
sg24
I61
sg25
I524169
sg26
I374125
sg27
I3859065
sg28
I608750
ssS'BOWEN JR RAYMOND M'
p236
(dp237
g3
F0.008073196986006458
sg4
I1858
sg5
F-0.00037421490723852995
sg6
I-999
sg7
F5.185185185185185
sg8
I65907
sg9
I01
sg10
I974293
sg11
S'raymond.bowen@enron.com'
p238
sg13
I140
sg14
I-833
sg15
I-999
sg16
I1593
sg17
I-999
sg18
I27
sg19
I1621
sg20
I-999
sg21
I1350000
sg22
I252055
sg23
F68.81481481481481
sg24
I15
sg25
I252055
sg26
I278601
sg27
I2669589
sg28
I-999
ssS'GILLIS JOHN'
p239
(dp240
g3
F1.0
sg4
I-999
sg5
F1.0
sg6
I-999
sg7
F1.0
sg8
I-999
sg9
I00
sg10
I-999
sg11
I-999
sg13
I-999
sg14
I-999
sg15
I-999
sg16
I-999
sg17
I-999
sg18
I-999
sg19
I-999
sg20
I-999
sg21
I-999
sg22
I85641
sg23
F1.0
sg24
I-999
sg25
I75838
sg26
I-999
sg27
I-999
sg28
I9803
ssS'FITZGERALD JAY L'
p241
(dp242
g3
F0.008547008547008548
sg4
I936
sg5
F-0.000706078423473185
sg6
I-999
sg7
F0.0625
sg8
I23870
sg9
I00
sg10
I556416
sg11
S'jay.fitzgerald@enron.com'
p243
sg13
I1
sg14
I-999
sg15
I-999
sg16
I723
sg17
I-999
sg18
I16
sg19
I285414
sg20
I-999
sg21
I350000
sg22
I1621236
sg23
F58.5
sg24
I8
sg25
I956775
sg26
I199157
sg27
I1414857
sg28
I664461
ssS'MORAN MICHAEL P'
p244
(dp245
g3
F0.0
sg4
I672
sg5
F1.0
sg6
I-999
sg7
F0.0
sg8
I-999
sg9
I00
sg10
I-999
sg11
S'michael.moran@enron.com'
p246
sg13
I0
sg14
I-999
sg15
I-999
sg16
I127
sg17
I-999
sg18
I19
sg19
I-999
sg20
I-999
sg21
I-999
sg22
I221141
sg23
F35.36842105263158
sg24
I0
sg25
I161602
sg26
I-999
sg27
I-999
sg28
I59539
ssS'REDMOND BRIAN L'
p247
(dp248
g3
F0.029323758228605626
sg4
I1671
sg5
F-0.008957311551255728
sg6
I-999
sg7
F0.9230769230769231
sg8
I14689
sg9
I00
sg10
I-999
sg11
S'brian.redmond@enron.com'
p249
sg13
I204
sg14
I-999
sg15
I-999
sg16
I1063
sg17
I-999
sg18
I221
sg19
I-999
sg20
I-999
sg21
I-999
sg22
I7890324
sg23
F7.5610859728506785
sg24
I49
sg25
I381285
sg26
I96840
sg27
I111529
sg28
I7509039
ssS'BAZELIDES PHILIP J'
p250
(dp251
g3
F1.0
sg4
I-999
sg5
F0.7960299301505809
sg6
I684694
sg7
F1.0
sg8
I-999
sg9
I00
sg10
I93750
sg11
I-999
sg13
I-999
sg14
I-999
sg15
I-999
sg16
I-999
sg17
I-999
sg18
I-999
sg19
I874
sg20
I-999
sg21
I-999
sg22
I1599641
sg23
F1.0
sg24
I-999
sg25
I-999
sg26
I80818
sg27
I860136
sg28
I1599641
ssS'BELDEN TIMOTHY N'
p252
(dp253
g3
F0.013515204605180828
sg4
I7991
sg5
F0.38970505104850744
sg6
I2144013
sg7
F0.47107438016528924
sg8
I17355
sg9
I01
sg10
I-999
sg11
S'tim.belden@enron.com'
p254
sg13
I228
sg14
I-2334434
sg15
I-999
sg16
I5521
sg17
I-999
sg18
I484
sg19
I210698
sg20
I-999
sg21
I5249999
sg22
I1110705
sg23
F16.510330578512395
sg24
I108
sg25
I157569
sg26
I213999
sg27
I5501630
sg28
I953136
ssS'DURAN WILLIAM D'
p255
(dp256
g3
F0.00331858407079646
sg4
I904
sg5
F-0.0004772453341983305
sg6
I-999
sg7
F8.833333333333334
sg8
I25785
sg9
I00
sg10
I1105218
sg11
S'w.duran@enron.com'
p257
sg13
I106
sg14
I-999
sg15
I-999
sg16
I599
sg17
I-999
sg18
I12
sg19
I1568
sg20
I-999
sg21
I750000
sg22
I1640910
sg23
F75.33333333333333
sg24
I3
sg25
I189041
sg26
I210692
sg27
I2093263
sg28
I1451869
ssS'THORN TERENCE H'
p258
(dp259
g3
F0.0
sg4
I266
sg5
F0.018197317908877363
sg6
I16586
sg7
F0.0
sg8
I46145
sg9
I00
sg10
I200000
sg11
S'terence.thorn@enron.com'
p260
sg13
I0
sg14
I-999
sg15
I-999
sg16
I73
sg17
I-999
sg18
I41
sg19
I426629
sg20
I-999
sg21
I-999
sg22
I4817796
sg23
F6.487804878048781
sg24
I0
sg25
I365320
sg26
I222093
sg27
I911453
sg28
I4452476
ssS'FASTOW ANDREW S'
p261
(dp262
g3
F1.0
sg4
I-999
sg5
F-0.0004121146016864934
sg6
I-999
sg7
F1.0
sg8
I55921
sg9
I01
sg10
I1736055
sg11
S'andrew.fastow@enron.com'
p263
sg13
I-999
sg14
I-1386055
sg15
I-999
sg16
I-999
sg17
I-999
sg18
I-999
sg19
I277464
sg20
I-999
sg21
I1300000
sg22
I1794412
sg23
F1.0
sg24
I-999
sg25
I1794412
sg26
I440698
sg27
I2424083
sg28
I-999
ssS'FOY JOE'
p264
(dp265
g3
F0.0
sg4
I57
sg5
F1.0
sg6
I181755
sg7
F0.0
sg8
I-999
sg9
I00
sg10
I-999
sg11
S'tracy.foy@enron.com'
p266
sg13
I0
sg14
I-999
sg15
I-999
sg16
I2
sg17
I-999
sg18
I13
sg19
I-999
sg20
I-999
sg21
I-999
sg22
I343434
sg23
F4.384615384615385
sg24
I0
sg25
I-999
sg26
I-999
sg27
I181755
sg28
I343434
ssS'CALGER CHRISTOPHER F'
p267
(dp268
g3
F0.00962278675904542
sg4
I2598
sg5
F-0.0006094075692202206
sg6
I-999
sg7
F1.3819444444444444
sg8
I35818
sg9
I01
sg10
I375304
sg11
S'christopher.calger@enron.com'
p269
sg13
I199
sg14
I-262500
sg15
I-999
sg16
I2188
sg17
I-999
sg18
I144
sg19
I486
sg20
I-999
sg21
I1250000
sg22
I126027
sg23
F18.041666666666668
sg24
I25
sg25
I126027
sg26
I240189
sg27
I1639297
sg28
I-999
ssS'RICE KENNETH D'
p270
(dp271
g3
F0.004419889502762431
sg4
I905
sg5
F-0.001978021978021978
sg6
I-999
sg7
F2.3333333333333335
sg8
I46950
sg9
I01
sg10
I1617011
sg11
S'ken.rice@enron.com'
p272
sg13
I42
sg14
I-3504386
sg15
I-999
sg16
I864
sg17
I-999
sg18
I18
sg19
I174839
sg20
I-999
sg21
I1750000
sg22
I22542539
sg23
F50.27777777777778
sg24
I4
sg25
I2748364
sg26
I420636
sg27
I505050
sg28
I19794175
ssS'KAMINSKI WINCENTY J'
p273
(dp274
g3
F0.03711742999782939
sg4
I4607
sg5
F-0.0009191946051833742
sg6
I-999
sg7
F0.002853563474387528
sg8
I83585
sg9
I00
sg10
I323466
sg11
S'vince.kaminski@enron.com'
p275
sg13
I41
sg14
I-999
sg15
I-999
sg16
I583
sg17
I-999
sg18
I14368
sg19
I4669
sg20
I-999
sg21
I400000
sg22
I976037
sg23
F0.3206430957683742
sg24
I171
sg25
I126027
sg26
I275101
sg27
I1086821
sg28
I850010
ssS'COX DAVID'
p276
(dp277
g3
F0.0392156862745098
sg4
I102
sg5
F-0.0009070331843401946
sg6
I-999
sg7
F0.0
sg8
I27861
sg9
I00
sg10
I-999
sg11
S'chip.cox@enron.com'
p278
sg13
I0
sg14
I-41250
sg15
I-999
sg16
I71
sg17
I-999
sg18
I33
sg19
I494
sg20
I-999
sg21
I800000
sg22
I495633
sg23
F3.090909090909091
sg24
I4
sg25
I378082
sg26
I314288
sg27
I1101393
sg28
I117551
ssS'OVERDYKE JR JERE C'
p279
(dp280
g3
F1.0
sg4
I-999
sg5
F-0.003999407495185898
sg6
I-999
sg7
F1.0
sg8
I18834
sg9
I00
sg10
I135836
sg11
S'jere.overdyke@enron.com'
p281
sg13
I-999
sg14
I-999
sg15
I-999
sg16
I-999
sg17
I-999
sg18
I-999
sg19
I176
sg20
I-999
sg21
I-999
sg22
I7307594
sg23
F1.0
sg24
I-999
sg25
I2041016
sg26
I94941
sg27
I249787
sg28
I5266578
ssS'PEREIRA PAULO V. FERRAZ'
p282
(dp283
g3
F1.0
sg4
I-999
sg5
F-0.03575263044878677
sg6
I-999
sg7
F1.0
sg8
I27942
sg9
I00
sg10
I-999
sg11
I-999
sg13
I-999
sg14
I-101250
sg15
I-999
sg16
I-999
sg17
I-999
sg18
I-999
sg19
I-999
sg20
I101250
sg21
I-999
sg22
I-999
sg23
F1.0
sg24
I-999
sg25
I-999
sg26
I-999
sg27
I27942
sg28
I-999
ssS'STABLER FRANK'
p284
(dp285
g3
F1.0
sg4
I-999
sg5
F-0.0008983110134368983
sg6
I-999
sg7
F1.0
sg8
I16514
sg9
I00
sg10
I-999
sg11
S'frank.stabler@enron.com'
p286
sg13
I-999
sg14
I-999
sg15
I-999
sg16
I-999
sg17
I-999
sg18
I-999
sg19
I356071
sg20
I-999
sg21
I500000
sg22
I511734
sg23
F1.0
sg24
I-999
sg25
I511734
sg26
I239502
sg27
I1112087
sg28
I-999
ssS'SKILLING JEFFREY K'
p287
(dp288
g3
F0.008271298593879239
sg4
I3627
sg5
F-0.00011505616445361105
sg6
I-999
sg7
F0.8148148148148148
sg8
I29336
sg9
I01
sg10
I1920000
sg11
S'jeff.skilling@enron.com'
p289
sg13
I88
sg14
I-999
sg15
I-999
sg16
I2042
sg17
I-999
sg18
I108
sg19
I22122
sg20
I-999
sg21
I5600000
sg22
I26093672
sg23
F33.583333333333336
sg24
I30
sg25
I6843672
sg26
I1111258
sg27
I8682716
sg28
I19250000
ssS'BLAKE JR. NORMAN P'
p290
(dp291
g3
F1.0
sg4
I-999
sg5
F-0.781078967943706
sg6
I-999
sg7
F1.0
sg8
I1279
sg9
I00
sg10
I-999
sg11
I-999
sg13
I-999
sg14
I-113784
sg15
I-999
sg16
I-999
sg17
I-999
sg18
I-999
sg19
I-999
sg20
I113784
sg21
I-999
sg22
I-999
sg23
F1.0
sg24
I-999
sg25
I-999
sg26
I-999
sg27
I1279
sg28
I-999
ssS'SHERRICK JEFFREY B'
p292
(dp293
g3
F0.02936378466557912
sg4
I613
sg5
F1.0
sg6
I-999
sg7
F1.56
sg8
I-999
sg9
I00
sg10
I-999
sg11
S'jeffrey.sherrick@enron.com'
p294
sg13
I39
sg14
I-999
sg15
I-999
sg16
I583
sg17
I-999
sg18
I25
sg19
I-999
sg20
I-999
sg21
I-999
sg22
I1832468
sg23
F24.52
sg24
I18
sg25
I405999
sg26
I-999
sg27
I-999
sg28
I1426469
ssS'PRENTICE JAMES'
p295
(dp296
g3
F1.0
sg4
I-999
sg5
F1.0
sg6
I564348
sg7
F1.0
sg8
I-999
sg9
I00
sg10
I-999
sg11
S'james.prentice@enron.com'
p297
sg13
I-999
sg14
I-999
sg15
I-999
sg16
I-999
sg17
I-999
sg18
I-999
sg19
I-999
sg20
I-999
sg21
I-999
sg22
I1095040
sg23
F1.0
sg24
I-999
sg25
I208809
sg26
I-999
sg27
I564348
sg28
I886231
ssS'GRAY RODNEY'
p298
(dp299
g3
F1.0
sg4
I-999
sg5
F0.08161544244229753
sg6
I93585
sg7
F1.0
sg8
I-999
sg9
I00
sg10
I365625
sg11
I-999
sg13
I-999
sg14
I-999
sg15
I-999
sg16
I-999
sg17
I-999
sg18
I-999
sg19
I680833
sg20
I-999
sg21
I-999
sg22
I-999
sg23
F1.0
sg24
I-999
sg25
I-999
sg26
I6615
sg27
I1146658
sg28
I-999
ssS'PICKERING MARK R'
p300
(dp301
g3
F0.0
sg4
I898
sg5
F-0.0007204205698461805
sg6
I-999
sg7
F0.1044776119402985
sg8
I31653
sg9
I00
sg10
I-999
sg11
S'mark.pickering@enron.com'
p302
sg13
I7
sg14
I-999
sg15
I-999
sg16
I728
sg17
I400000
sg18
I67
sg19
I-999
sg20
I-999
sg21
I300000
sg22
I28798
sg23
F13.402985074626866
sg24
I0
sg25
I-999
sg26
I655037
sg27
I1386690
sg28
I28798
ssS'NOLES JAMES L'
p303
(dp304
g3
F1.0
sg4
I-999
sg5
F1.0
sg6
I774401
sg7
F1.0
sg8
I-999
sg9
I00
sg10
I-999
sg11
I-999
sg13
I-999
sg14
I-999
sg15
I-94556
sg16
I-999
sg17
I-999
sg18
I-999
sg19
I-999
sg20
I-999
sg21
I-999
sg22
I368705
sg23
F1.0
sg24
I-999
sg25
I463261
sg26
I-999
sg27
I774401
sg28
I-999
ssS'KEAN STEVEN J'
p305
(dp306
g3
F0.03034342167163243
sg4
I12754
sg5
F-0.0005716666227950206
sg6
I-999
sg7
F0.020713123243083296
sg8
I41953
sg9
I00
sg10
I300000
sg11
S'steven.kean@enron.com'
p307
sg13
I140
sg14
I-999
sg15
I-999
sg16
I3639
sg17
I-999
sg18
I6759
sg19
I1231
sg20
I-999
sg21
I1000000
sg22
I6153642
sg23
F1.8869655274448882
sg24
I387
sg25
I4131594
sg26
I404338
sg27
I1747522
sg28
I2022048
ssS'FOWLER PEGGY'
p308
(dp309
g3
F0.0
sg4
I517
sg5
F1.0
sg6
I-999
sg7
F0.0
sg8
I-999
sg9
I00
sg10
I-999
sg11
S'kulvinder.fowler@enron.com'
p310
sg13
I0
sg14
I-999
sg15
I-999
sg16
I10
sg17
I-999
sg18
I36
sg19
I-999
sg20
I-999
sg21
I-999
sg22
I1884748
sg23
F14.36111111111111
sg24
I0
sg25
I560170
sg26
I-999
sg27
I-999
sg28
I1324578
ssS'WASAFF GEORGE'
p311
(dp312
g3
F0.0175
sg4
I400
sg5
F0.8036572102533365
sg6
I831299
sg7
F0.7333333333333333
sg8
I-999
sg9
I00
sg10
I200000
sg11
S'george.wasaff@enron.com'
p313
sg13
I22
sg14
I-583325
sg15
I-999
sg16
I337
sg17
I-999
sg18
I30
sg19
I1425
sg20
I-999
sg21
I325000
sg22
I2056427
sg23
F13.333333333333334
sg24
I7
sg25
I388167
sg26
I259996
sg27
I1034395
sg28
I1668260
ssS'WHITE JR THOMAS E'
p314
(dp315
g3
F1.0
sg4
I-999
sg5
F-0.0005164501522209683
sg6
I-999
sg7
F1.0
sg8
I81353
sg9
I00
sg10
I-999
sg11
S'thomas.white@enron.com'
p316
sg13
I-999
sg14
I-999
sg15
I-999
sg16
I-999
sg17
I-999
sg18
I-999
sg19
I1085463
sg20
I-999
sg21
I450000
sg22
I15144123
sg23
F1.0
sg24
I-999
sg25
I13847074
sg26
I317543
sg27
I1934359
sg28
I1297049
ssS'CHRISTODOULOU DIOMEDES'
p317
(dp318
g3
F1.0
sg4
I-999
sg5
F1.0
sg6
I-999
sg7
F1.0
sg8
I-999
sg9
I00
sg10
I-999
sg11
S'diomedes.christodoulou@enron.com'
p319
sg13
I-999
sg14
I-999
sg15
I-999
sg16
I-999
sg17
I-999
sg18
I-999
sg19
I-999
sg20
I-999
sg21
I-999
sg22
I6077885
sg23
F1.0
sg24
I-999
sg25
I950730
sg26
I-999
sg27
I-999
sg28
I5127155
ssS'ALLEN PHILLIP K'
p320
(dp321
g3
F0.022398345968297727
sg4
I2902
sg5
F0.6399273309812012
sg6
I2869717
sg7
F0.0214123006833713
sg8
I13868
sg9
I00
sg10
I304805
sg11
S'phillip.allen@enron.com'
p322
sg13
I47
sg14
I-3081055
sg15
I-126027
sg16
I1407
sg17
I-999
sg18
I2195
sg19
I152
sg20
I-999
sg21
I4175000
sg22
I1729541
sg23
F1.3220956719817767
sg24
I65
sg25
I126027
sg26
I201955
sg27
I4484442
sg28
I1729541
ssS'SHARP VICTORIA T'
p323
(dp324
g3
F0.001913265306122449
sg4
I3136
sg5
F0.1189138547082767
sg6
I187469
sg7
F0.17647058823529413
sg8
I116337
sg9
I00
sg10
I422158
sg11
S'vicki.sharp@enron.com'
p325
sg13
I24
sg14
I-999
sg15
I-999
sg16
I2477
sg17
I-999
sg18
I136
sg19
I2401
sg20
I-999
sg21
I600000
sg22
I494136
sg23
F23.058823529411764
sg24
I6
sg25
I213063
sg26
I248146
sg27
I1576511
sg28
I281073
ssS'JAEDICKE ROBERT'
p326
(dp327
g3
F1.0
sg4
I-999
sg5
F-0.011928358208955225
sg6
I-999
sg7
F1.0
sg8
I-999
sg9
I00
sg10
I-999
sg11
I-999
sg13
I-999
sg14
I-25000
sg15
I-44093
sg16
I-999
sg17
I-999
sg18
I-999
sg19
I-999
sg20
I108750
sg21
I-999
sg22
I431750
sg23
F1.0
sg24
I-999
sg25
I44093
sg26
I-999
sg27
I83750
sg28
I431750
ssS'WINOKUR JR. HERBERT S'
p328
(dp329
g3
F1.0
sg4
I-999
sg5
F-0.011754047439759037
sg6
I-999
sg7
F1.0
sg8
I1413
sg9
I00
sg10
I-999
sg11
I-999
sg13
I-999
sg14
I-25000
sg15
I-999
sg16
I-999
sg17
I-999
sg18
I-999
sg19
I-999
sg20
I108579
sg21
I-999
sg22
I-999
sg23
F1.0
sg24
I-999
sg25
I-999
sg26
I-999
sg27
I84992
sg28
I-999
ssS'BROWN MICHAEL'
p330
(dp331
g3
F0.0006729475100942127
sg4
I1486
sg5
F-0.020268625223178054
sg6
I-999
sg7
F0.3170731707317073
sg8
I49288
sg9
I00
sg10
I-999
sg11
S'michael.brown@enron.com'
p332
sg13
I13
sg14
I-999
sg15
I-999
sg16
I761
sg17
I-999
sg18
I41
sg19
I-999
sg20
I-999
sg21
I-999
sg22
I-999
sg23
F36.24390243902439
sg24
I1
sg25
I-999
sg26
I-999
sg27
I49288
sg28
I-999
ssS'BADUM JAMES P'
p333
(dp334
g3
F1.0
sg4
I-999
sg5
F0.9808950708625168
sg6
I178980
sg7
F1.0
sg8
I3486
sg9
I00
sg10
I-999
sg11
I-999
sg13
I-999
sg14
I-999
sg15
I-999
sg16
I-999
sg17
I-999
sg18
I-999
sg19
I-999
sg20
I-999
sg21
I-999
sg22
I257817
sg23
F1.0
sg24
I-999
sg25
I-999
sg26
I-999
sg27
I182466
sg28
I257817
ssS'HUGHES JAMES A'
p335
(dp336
g3
F0.006954102920723227
sg4
I719
sg5
F1.0
sg6
I-999
sg7
F1.0294117647058822
sg8
I-999
sg9
I00
sg10
I-999
sg11
S'james.hughes@enron.com'
p337
sg13
I35
sg14
I-999
sg15
I-999
sg16
I589
sg17
I-999
sg18
I34
sg19
I-999
sg20
I-999
sg21
I-999
sg22
I1118394
sg23
F21.147058823529413
sg24
I5
sg25
I363428
sg26
I-999
sg27
I-999
sg28
I754966
ssS'REYNOLDS LAWRENCE'
p338
(dp339
g3
F1.0
sg4
I-999
sg5
F0.13021103998985994
sg6
I51365
sg7
F1.0
sg8
I8409
sg9
I00
sg10
I156250
sg11
I-999
sg13
I-999
sg14
I-200000
sg15
I-140264
sg16
I-999
sg17
I-999
sg18
I-999
sg19
I202052
sg20
I-999
sg21
I100000
sg22
I4221891
sg23
F1.0
sg24
I-999
sg25
I201483
sg26
I76399
sg27
I394475
sg28
I4160672
ssS'DIMICHELE RICHARD G'
p340
(dp341
g3
F1.0
sg4
I-999
sg5
F-0.00042184810005780883
sg6
I-999
sg7
F1.0
sg8
I35812
sg9
I00
sg10
I694862
sg11
S'richard.dimichele@enron.com'
p342
sg13
I-999
sg14
I-999
sg15
I-999
sg16
I-999
sg17
I-999
sg18
I-999
sg19
I374689
sg20
I-999
sg21
I1000000
sg22
I8317782
sg23
F1.0
sg24
I-999
sg25
I126027
sg26
I262788
sg27
I2368151
sg28
I8191755
ssS'BHATNAGAR SANJAY'
p343
(dp344
g3
F0.0019120458891013384
sg4
I523
sg5
F-6.463388044608376e-05
sg6
I-999
sg7
F0.0
sg8
I-999
sg9
I00
sg10
I-999
sg11
S'sanjay.bhatnagar@enron.com'
p345
sg13
I0
sg14
I-999
sg15
I15456290
sg16
I463
sg17
I-999
sg18
I29
sg19
I137864
sg20
I137864
sg21
I-999
sg22
I-999
sg23
F18.03448275862069
sg24
I1
sg25
I-2604490
sg26
I-999
sg27
I15456290
sg28
I2604490
ssS'CARTER REBECCA C'
p346
(dp347
g3
F0.022435897435897436
sg4
I312
sg5
F-0.0020918968835133816
sg6
I-999
sg7
F1.9333333333333333
sg8
I-999
sg9
I00
sg10
I75000
sg11
S'rebecca.carter@enron.com'
p348
sg13
I29
sg14
I-159792
sg15
I-307301
sg16
I196
sg17
I-999
sg18
I15
sg19
I540
sg20
I-999
sg21
I300000
sg22
I-999
sg23
F20.8
sg24
I7
sg25
I307301
sg26
I261809
sg27
I477557
sg28
I-999
ssS'BUCHANAN HAROLD G'
p349
(dp350
g3
F0.0
sg4
I1088
sg5
F-0.0009472453555109484
sg6
I-999
sg7
F0.0
sg8
I600
sg9
I00
sg10
I304805
sg11
S'john.buchanan@enron.com'
p351
sg13
I0
sg14
I-999
sg15
I-999
sg16
I23
sg17
I-999
sg18
I125
sg19
I1215
sg20
I-999
sg21
I500000
sg22
I1014505
sg23
F8.704
sg24
I0
sg25
I189041
sg26
I248017
sg27
I1054637
sg28
I825464
ssS'YEAP SOON'
p352
(dp353
g3
F1.0
sg4
I-999
sg5
F-0.0181316587110006
sg6
I-999
sg7
F1.0
sg8
I55097
sg9
I00
sg10
I-999
sg11
I-999
sg13
I-999
sg14
I-999
sg15
I-999
sg16
I-999
sg17
I-999
sg18
I-999
sg19
I-999
sg20
I-999
sg21
I-999
sg22
I192758
sg23
F1.0
sg24
I-999
sg25
I-999
sg26
I-999
sg27
I55097
sg28
I192758
ssS'MURRAY JULIA H'
p354
(dp355
g3
F0.0009124087591240876
sg4
I2192
sg5
F-0.001230001699101446
sg6
I-999
sg7
F0.24444444444444444
sg8
I57580
sg9
I00
sg10
I125000
sg11
S'julia.murray@enron.com'
p356
sg13
I11
sg14
I-999
sg15
I-999
sg16
I395
sg17
I-999
sg18
I45
sg19
I330
sg20
I-999
sg21
I400000
sg22
I597461
sg23
F48.71111111111111
sg24
I2
sg25
I196983
sg26
I229284
sg27
I812194
sg28
I400478
ssS'GARLAND C KEVIN'
p357
(dp358
g3
F0.1291866028708134
sg4
I209
sg5
F-0.0006377400382644023
sg6
I-999
sg7
F0.22727272727272727
sg8
I48405
sg9
I00
sg10
I375304
sg11
S'kevin.garland@enron.com'
p359
sg13
I10
sg14
I-999
sg15
I-999
sg16
I178
sg17
I-999
sg18
I44
sg19
I60814
sg20
I-999
sg21
I850000
sg22
I896153
sg23
F4.75
sg24
I27
sg25
I259907
sg26
I231946
sg27
I1566469
sg28
I636246
ssS'DODSON KEITH'
p360
(dp361
g3
F0.017045454545454544
sg4
I176
sg5
F-0.003122450701848153
sg6
I-999
sg7
F0.7142857142857143
sg8
I28164
sg9
I00
sg10
I-999
sg11
S'keith.dodson@enron.com'
p362
sg13
I10
sg14
I-999
sg15
I-999
sg16
I114
sg17
I-999
sg18
I14
sg19
I774
sg20
I-999
sg21
I70000
sg22
I-999
sg23
F12.571428571428571
sg24
I3
sg25
I-999
sg26
I221003
sg27
I319941
sg28
I-999
ssS'YEAGER F SCOTT'
p363
(dp364
g3
F1.0
sg4
I-999
sg5
F-0.0027726894254787677
sg6
I-999
sg7
F1.0
sg8
I53947
sg9
I01
sg10
I-999
sg11
S'scott.yeager@enron.com'
p365
sg13
I-999
sg14
I-999
sg15
I-999
sg16
I-999
sg17
I-999
sg18
I-999
sg19
I147950
sg20
I-999
sg21
I-999
sg22
I11884758
sg23
F1.0
sg24
I-999
sg25
I3576206
sg26
I158403
sg27
I360300
sg28
I8308552
ssS'HIRKO JOSEPH'
p366
(dp367
g3
F1.0
sg4
I-999
sg5
F0.1126211673783935
sg6
I10259
sg7
F1.0
sg8
I77978
sg9
I01
sg10
I-999
sg11
S'joe.hirko@enron.com'
p368
sg13
I-999
sg14
I-999
sg15
I-999
sg16
I-999
sg17
I-999
sg18
I-999
sg19
I2856
sg20
I-999
sg21
I-999
sg22
I30766064
sg23
F1.0
sg24
I-999
sg25
I-999
sg26
I-999
sg27
I91093
sg28
I30766064
ssS'DIETRICH JANET R'
p369
(dp370
g3
F0.005443234836702955
sg4
I2572
sg5
F-0.0007082775597250266
sg6
I-999
sg7
F4.841269841269841
sg8
I3475
sg9
I00
sg10
I556416
sg11
S'janet.dietrich@enron.com'
p371
sg13
I305
sg14
I-999
sg15
I-999
sg16
I1902
sg17
I-999
sg18
I63
sg19
I473
sg20
I-999
sg21
I600000
sg22
I1865087
sg23
F40.82539682539682
sg24
I14
sg25
I315068
sg26
I250100
sg27
I1410464
sg28
I1550019
ssS'DERRICK JR. JAMES V'
p372
(dp373
g3
F0.009170105456212746
sg4
I2181
sg5
F-0.0018131296723480482
sg6
I-999
sg7
F0.0704070407040704
sg8
I51124
sg9
I00
sg10
I484000
sg11
S'james.derrick@enron.com'
p374
sg13
I64
sg14
I-1284000
sg15
I-1787380
sg16
I1401
sg17
I-999
sg18
I909
sg19
I7482
sg20
I-999
sg21
I800000
sg22
I8831913
sg23
F2.3993399339933994
sg24
I20
sg25
I1787380
sg26
I492375
sg27
I550981
sg28
I8831913
ssS'FREVERT MARK A'
p375
(dp376
g3
F0.00183206106870229
sg4
I3275
sg5
F0.37252449350906797
sg6
I6426990
sg7
F11.523809523809524
sg8
I86987
sg9
I00
sg10
I1617011
sg11
S'mark.frevert@enron.com'
p377
sg13
I242
sg14
I-3367011
sg15
I-999
sg16
I2979
sg17
I2000000
sg18
I21
sg19
I7427621
sg20
I-999
sg21
I2000000
sg22
I14622185
sg23
F155.95238095238096
sg24
I6
sg25
I4188667
sg26
I1060932
sg27
I17252530
sg28
I10433518
ssS'PAI LOU L'
p378
(dp379
g3
F1.0
sg4
I-999
sg5
F-0.0003198455008559629
sg6
I-999
sg7
F1.0
sg8
I32047
sg9
I00
sg10
I-999
sg11
S'lou.pai@enron.com'
p380
sg13
I-999
sg14
I-999
sg15
I-999
sg16
I-999
sg17
I-999
sg18
I-999
sg19
I1829457
sg20
I-999
sg21
I1000000
sg22
I23817930
sg23
F1.0
sg24
I-999
sg25
I8453763
sg26
I261879
sg27
I3123383
sg28
I15364167
ssS'BAY FRANKLIN R'
p381
(dp382
g3
F1.0
sg4
I-999
sg5
F0.3146747114882759
sg6
I260455
sg7
F1.0
sg8
I129142
sg9
I00
sg10
I-999
sg11
S'frank.bay@enron.com'
p383
sg13
I-999
sg14
I-201641
sg15
I-82782
sg16
I-999
sg17
I-999
sg18
I-999
sg19
I69
sg20
I-999
sg21
I400000
sg22
I63014
sg23
F1.0
sg24
I-999
sg25
I145796
sg26
I239671
sg27
I827696
sg28
I-999
ssS'HAYSLETT RODERICK J'
p384
(dp385
g3
F0.014345035862589657
sg4
I2649
sg5
F1.0
sg6
I-999
sg7
F0.03298774740810556
sg8
I-999
sg9
I00
sg10
I-999
sg11
S'rod.hayslett@enron.com'
p386
sg13
I35
sg14
I-999
sg15
I-999
sg16
I571
sg17
I-999
sg18
I1061
sg19
I-999
sg20
I-999
sg21
I-999
sg22
I346663
sg23
F2.4967012252591894
sg24
I38
sg25
I346663
sg26
I-999
sg27
I-999
sg28
I-999
ssS'FUGH JOHN L'
p387
(dp388
g3
F1.0
sg4
I-999
sg5
F1.0
sg6
I50591
sg7
F1.0
sg8
I-999
sg9
I00
sg10
I-999
sg11
I-999
sg13
I-999
sg14
I-999
sg15
I-999
sg16
I-999
sg17
I-999
sg18
I-999
sg19
I-999
sg20
I-999
sg21
I-999
sg22
I176378
sg23
F1.0
sg24
I-999
sg25
I-999
sg26
I-999
sg27
I50591
sg28
I176378
ssS'FALLON JAMES B'
p389
(dp390
g3
F0.021082621082621083
sg4
I1755
sg5
F-0.00027173765212140335
sg6
I-999
sg7
F0.56
sg8
I95924
sg9
I00
sg10
I374347
sg11
S'jim.fallon@enron.com'
p391
sg13
I42
sg14
I-999
sg15
I-999
sg16
I1604
sg17
I-999
sg18
I75
sg19
I401481
sg20
I-999
sg21
I2500000
sg22
I2332399
sg23
F23.4
sg24
I37
sg25
I1392142
sg26
I304588
sg27
I3676340
sg28
I940257
ssS'KOENIG MARK E'
p392
(dp393
g3
F0.006318449873631003
sg4
I2374
sg5
F-0.0006293226560565849
sg6
I-999
sg7
F0.8688524590163934
sg8
I127017
sg9
I01
sg10
I300000
sg11
S'mark.koenig@enron.com'
p394
sg13
I53
sg14
I-999
sg15
I-999
sg16
I2271
sg17
I-999
sg18
I61
sg19
I150458
sg20
I-999
sg21
I700000
sg22
I1920055
sg23
F38.91803278688525
sg24
I15
sg25
I1248318
sg26
I309946
sg27
I1587421
sg28
I671737
ssS'SAVAGE FRANK'
p395
(dp396
g3
F1.0
sg4
I-999
sg5
F-0.2664
sg6
I-999
sg7
F1.0
sg8
I-999
sg9
I00
sg10
I-999
sg11
I-999
sg13
I-999
sg14
I-121284
sg15
I-999
sg16
I-999
sg17
I-999
sg18
I-999
sg19
I-999
sg20
I125034
sg21
I-999
sg22
I-999
sg23
F1.0
sg24
I-999
sg25
I-999
sg26
I-999
sg27
I3750
sg28
I-999
ssS'IZZO LAWRENCE L'
p397
(dp398
g3
F0.010080645161290322
sg4
I496
sg5
F-0.0005046484232136254
sg6
I-999
sg7
F1.4736842105263157
sg8
I28093
sg9
I00
sg10
I312500
sg11
S'larry.izzo@enron.com'
p399
sg13
I28
sg14
I-999
sg15
I-999
sg16
I437
sg17
I-999
sg18
I19
sg19
I1553729
sg20
I-999
sg21
I-999
sg22
I5819980
sg23
F26.105263157894736
sg24
I5
sg25
I3654808
sg26
I85274
sg27
I1979596
sg28
I2165172
ssS'TILNEY ELIZABETH A'
p400
(dp401
g3
F0.02391304347826087
sg4
I460
sg5
F-0.0025012957162494085
sg6
I-999
sg7
F0.5263157894736842
sg8
I-999
sg9
I00
sg10
I275000
sg11
S'elizabeth.tilney@enron.com'
p402
sg13
I10
sg14
I-575000
sg15
I-999
sg16
I379
sg17
I-999
sg18
I19
sg19
I152055
sg20
I-999
sg21
I300000
sg22
I1168042
sg23
F24.210526315789473
sg24
I11
sg25
I576792
sg26
I247338
sg27
I399393
sg28
I591250
ssS'MARTIN AMANDA K'
p403
(dp404
g3
F0.0
sg4
I1522
sg5
F0.010161750614010964
sg6
I85430
sg7
F0.034782608695652174
sg8
I8211
sg9
I00
sg10
I5145434
sg11
S'a..martin@enron.com'
p405
sg13
I8
sg14
I-999
sg15
I-999
sg16
I477
sg17
I-999
sg18
I230
sg19
I2818454
sg20
I-999
sg21
I-999
sg22
I2070306
sg23
F6.6173913043478265
sg24
I0
sg25
I-999
sg26
I349487
sg27
I8407016
sg28
I2070306
ssS'BUY RICHARD B'
p406
(dp407
g3
F0.02015327845586148
sg4
I3523
sg5
F0.27574964914917083
sg6
I649584
sg7
F0.14814814814814814
sg8
I-999
sg9
I00
sg10
I769862
sg11
S'rick.buy@enron.com'
p408
sg13
I156
sg14
I-694862
sg15
I-999
sg16
I2333
sg17
I-999
sg18
I1053
sg19
I400572
sg20
I-999
sg21
I900000
sg22
I3444470
sg23
F3.345679012345679
sg24
I71
sg25
I901657
sg26
I330546
sg27
I2355702
sg28
I2542813
ssS'GRAMM WENDY L'
p409
(dp410
g3
F1.0
sg4
I-999
sg5
F-0.008374409013177748
sg6
I-999
sg7
F1.0
sg8
I-999
sg9
I00
sg10
I-999
sg11
I-999
sg13
I-999
sg14
I-999
sg15
I-999
sg16
I-999
sg17
I-999
sg18
I-999
sg19
I-999
sg20
I119292
sg21
I-999
sg22
I-999
sg23
F1.0
sg24
I-999
sg25
I-999
sg26
I-999
sg27
I119292
sg28
I-999
ssS'CAUSEY RICHARD A'
p411
(dp412
g3
F0.006342494714587738
sg4
I1892
sg5
F-0.0005345796512978138
sg6
I-999
sg7
F1.183673469387755
sg8
I30674
sg9
I01
sg10
I350000
sg11
S'richard.causey@enron.com'
p413
sg13
I58
sg14
I-235000
sg15
I-999
sg16
I1585
sg17
I-999
sg18
I49
sg19
I307895
sg20
I-999
sg21
I1000000
sg22
I2502063
sg23
F38.61224489795919
sg24
I12
sg25
I2502063
sg26
I415189
sg27
I1868758
sg28
I-999
ssS'TAYLOR MITCHELL S'
p414
(dp415
g3
F0.0
sg4
I533
sg5
F0.20816024702950497
sg6
I227449
sg7
F0.0
sg8
I-999
sg9
I00
sg10
I-999
sg11
S'mitchell.taylor@enron.com'
p416
sg13
I0
sg14
I-999
sg15
I-999
sg16
I300
sg17
I-999
sg18
I29
sg19
I-999
sg20
I-999
sg21
I600000
sg22
I3745048
sg23
F18.379310344827587
sg24
I0
sg25
I563798
sg26
I265214
sg27
I1092663
sg28
I3181250
ssS'DONAHUE JR JEFFREY M'
p417
(dp418
g3
F0.012716763005780347
sg4
I865
sg5
F-0.0011407234858865443
sg6
I-999
sg7
F8.545454545454545
sg8
I96268
sg9
I00
sg10
I-999
sg11
S'jeff.donahue@enron.com'
p419
sg13
I188
sg14
I-300000
sg15
I-999
sg16
I772
sg17
I-999
sg18
I22
sg19
I891
sg20
I-999
sg21
I800000
sg22
I1080988
sg23
F39.31818181818182
sg24
I11
sg25
I315068
sg26
I278601
sg27
I875760
sg28
I765920
ssS'GLISAN JR BEN F'
p420
(dp421
g3
F0.006872852233676976
sg4
I873
sg5
F-0.0007852020460840505
sg6
I-999
sg7
F3.25
sg8
I125978
sg9
I01
sg10
I71023
sg11
S'ben.glisan@enron.com'
p422
sg13
I52
sg14
I-999
sg15
I-999
sg16
I874
sg17
I-999
sg18
I16
sg19
I200308
sg20
I-999
sg21
I600000
sg22
I778546
sg23
F54.5625
sg24
I6
sg25
I393818
sg26
I274975
sg27
I1272284
sg28
I384728
ss.