(dp0
S'METTS MARK'
p1
(dp2
S'poi_to_ratio'
p3
F0.0012391573729863693
sS'to_messages'
p4
F807.0
sS'deferred_ratio'
p5
F0.0
sS'deferral_payments'
p6
F0.0
sS'poi_from_ratio'
p7
F1.3103448275862069
sS'expenses'
p8
F94299.0
sS'poi'
p9
I00
sS'long_term_incentive'
p10
F0.0
sS'email_address'
p11
S'mark.metts@enron.com'
p12
sS'from_poi_to_this_person'
p13
F38.0
sS'deferred_income'
p14
F0.0
sS'restricted_stock_deferred'
p15
F0.0
sS'shared_receipt_with_poi'
p16
F702.0
sS'loan_advances'
p17
F0.0
sS'from_messages'
p18
F29.0
sS'other'
p19
F1740.0
sS'director_fees'
p20
F0.0
sS'bonus'
p21
F600000.0
sS'total_stock_value'
p22
F585062.0
sS'message_ratio'
p23
F27.82758620689655
sS'from_this_person_to_poi'
p24
F1.0
sS'restricted_stock'
p25
F585062.0
sS'salary'
p26
F365788.0
sS'total_payments'
p27
F1061827.0
sS'exercised_stock_options'
p28
F0.0
ssS'BAXTER JOHN C'
p29
(dp30
g3
F0.0
sg4
F0.0
sg5
F0.2299714447629475
sg6
F1295738.0
sg7
F0.0
sg8
F11200.0
sg9
I00
sg10
F1586055.0
sg11
I0
sg13
F0.0
sg14
F-1386055.0
sg15
F0.0
sg16
F0.0
sg17
F0.0
sg18
F0.0
sg19
F2660303.0
sg20
F0.0
sg21
F1200000.0
sg22
F10623258.0
sg23
F0.0
sg24
F0.0
sg25
F3942714.0
sg26
F267102.0
sg27
F5634343.0
sg28
F6680544.0
ssS'ELLIOTT STEVEN'
p31
(dp32
g3
F0.0
sg4
F0.0
sg5
F0.0
sg6
F0.0
sg7
F0.0
sg8
F78552.0
sg9
I00
sg10
F0.0
sg11
S'steven.elliott@enron.com'
p33
sg13
F0.0
sg14
F-400729.0
sg15
F0.0
sg16
F0.0
sg17
F0.0
sg18
F0.0
sg19
F12961.0
sg20
F0.0
sg21
F350000.0
sg22
F6678735.0
sg23
F0.0
sg24
F0.0
sg25
F1788391.0
sg26
F170941.0
sg27
F211725.0
sg28
F4890344.0
ssS'CORDES WILLIAM R'
p34
(dp35
g3
F0.0
sg4
F764.0
sg5
F0.0
sg6
F0.0
sg7
F0.8333333333333334
sg8
F0.0
sg9
I00
sg10
F0.0
sg11
S'bill.cordes@enron.com'
p36
sg13
F10.0
sg14
F0.0
sg15
F0.0
sg16
F58.0
sg17
F0.0
sg18
F12.0
sg19
F0.0
sg20
F0.0
sg21
F0.0
sg22
F1038185.0
sg23
F63.666666666666664
sg24
F0.0
sg25
F386335.0
sg26
F0.0
sg27
F0.0
sg28
F651850.0
ssS'HANNON KEVIN P'
p37
(dp38
g3
F0.020095693779904306
sg4
F1045.0
sg5
F0.0
sg6
F0.0
sg7
F1.0
sg8
F34039.0
sg9
I01
sg10
F1617011.0
sg11
S'kevin.hannon@enron.com'
p39
sg13
F32.0
sg14
F-3117011.0
sg15
F0.0
sg16
F1035.0
sg17
F0.0
sg18
F32.0
sg19
F11350.0
sg20
F0.0
sg21
F1500000.0
sg22
F6391065.0
sg23
F32.65625
sg24
F21.0
sg25
F853064.0
sg26
F243293.0
sg27
F288682.0
sg28
F5538001.0
ssS'MORDAUNT KRISTINA M'
p40
(dp41
g3
F0.0
sg4
F0.0
sg5
F0.0
sg6
F0.0
sg7
F0.0
sg8
F35018.0
sg9
I00
sg10
F0.0
sg11
S'kristina.mordaunt@enron.com'
p42
sg13
F0.0
sg14
F0.0
sg15
F0.0
sg16
F0.0
sg17
F0.0
sg18
F0.0
sg19
F1411.0
sg20
F0.0
sg21
F325000.0
sg22
F208510.0
sg23
F0.0
sg24
F0.0
sg25
F208510.0
sg26
F267093.0
sg27
F628522.0
sg28
F0.0
ssS'MEYER ROCKFORD G'
p43
(dp44
g3
F0.0
sg4
F232.0
sg5
F1.0
sg6
F1848227.0
sg7
F0.0
sg8
F0.0
sg9
I00
sg10
F0.0
sg11
S'rockford.meyer@enron.com'
p45
sg13
F0.0
sg14
F0.0
sg15
F0.0
sg16
F22.0
sg17
F0.0
sg18
F28.0
sg19
F0.0
sg20
F0.0
sg21
F0.0
sg22
F955873.0
sg23
F8.285714285714286
sg24
F0.0
sg25
F462384.0
sg26
F0.0
sg27
F1848227.0
sg28
F493489.0
ssS'MCMAHON JEFFREY'
p46
(dp47
g3
F0.011040339702760084
sg4
F2355.0
sg5
F0.0
sg6
F0.0
sg7
F1.2083333333333333
sg8
F137108.0
sg9
I00
sg10
F694862.0
sg11
S'jeffrey.mcmahon@enron.com'
p48
sg13
F58.0
sg14
F0.0
sg15
F0.0
sg16
F2228.0
sg17
F0.0
sg18
F48.0
sg19
F297353.0
sg20
F0.0
sg21
F2600000.0
sg22
F1662855.0
sg23
F49.0625
sg24
F26.0
sg25
F558801.0
sg26
F370448.0
sg27
F4099771.0
sg28
F1104054.0
ssS'HORTON STANLEY C'
p49
(dp50
g3
F0.006382978723404255
sg4
F2350.0
sg5
F1.0
sg6
F3131860.0
sg7
F0.04100652376514446
sg8
F0.0
sg9
I00
sg10
F0.0
sg11
S'stanley.horton@enron.com'
p51
sg13
F44.0
sg14
F0.0
sg15
F0.0
sg16
F1074.0
sg17
F0.0
sg18
F1073.0
sg19
F0.0
sg20
F0.0
sg21
F0.0
sg22
F7256648.0
sg23
F2.190121155638397
sg24
F15.0
sg25
F2046079.0
sg26
F0.0
sg27
F3131860.0
sg28
F5210569.0
ssS'PIPER GREGORY F'
p52
(dp53
g3
F0.03877221324717286
sg4
F1238.0
sg5
F0.6503321480016735
sg6
F1130036.0
sg7
F0.2747747747747748
sg8
F43057.0
sg9
I00
sg10
F0.0
sg11
S'greg.piper@enron.com'
p54
sg13
F61.0
sg14
F-33333.0
sg15
F-409554.0
sg16
F742.0
sg17
F0.0
sg18
F222.0
sg19
F778.0
sg20
F0.0
sg21
F400000.0
sg22
F880290.0
sg23
F5.576576576576577
sg24
F48.0
sg25
F409554.0
sg26
F197091.0
sg27
F1737629.0
sg28
F880290.0
ssS'HUMPHREY GENE E'
p55
(dp56
g3
F0.1328125
sg4
F128.0
sg5
F0.9562231632294956
sg6
F2964506.0
sg7
F0.5882352941176471
sg8
F4994.0
sg9
I00
sg10
F0.0
sg11
S'gene.humphrey@enron.com'
p57
sg13
F10.0
sg14
F0.0
sg15
F0.0
sg16
F119.0
sg17
F0.0
sg18
F17.0
sg19
F0.0
sg20
F0.0
sg21
F0.0
sg22
F2282768.0
sg23
F7.529411764705882
sg24
F17.0
sg25
F0.0
sg26
F130724.0
sg27
F3100224.0
sg28
F2282768.0
ssS'UMANOFF ADAM S'
p58
(dp59
g3
F0.0
sg4
F111.0
sg5
F0.0
sg6
F0.0
sg7
F0.6666666666666666
sg8
F53122.0
sg9
I00
sg10
F0.0
sg11
S'adam.umanoff@enron.com'
p60
sg13
F12.0
sg14
F0.0
sg15
F0.0
sg16
F41.0
sg17
F0.0
sg18
F18.0
sg19
F0.0
sg20
F0.0
sg21
F788750.0
sg22
F0.0
sg23
F6.166666666666667
sg24
F0.0
sg25
F0.0
sg26
F288589.0
sg27
F1130461.0
sg28
F0.0
ssS'BLACHMAN JEREMY M'
p61
(dp62
g3
F0.0008080808080808081
sg4
F2475.0
sg5
F0.0
sg6
F0.0
sg7
F1.7857142857142858
sg8
F84208.0
sg9
I00
sg10
F831809.0
sg11
S'jeremy.blachman@enron.com'
p63
sg13
F25.0
sg14
F0.0
sg15
F0.0
sg16
F2326.0
sg17
F0.0
sg18
F14.0
sg19
F272.0
sg20
F0.0
sg21
F850000.0
sg22
F954354.0
sg23
F176.78571428571428
sg24
F2.0
sg25
F189041.0
sg26
F248546.0
sg27
F2014835.0
sg28
F765313.0
ssS'SUNDE MARTIN'
p64
(dp65
g3
F0.004911220249338874
sg4
F2647.0
sg5
F0.0
sg6
F0.0
sg7
F0.9736842105263158
sg8
F0.0
sg9
I00
sg10
F476451.0
sg11
S'marty.sunde@enron.com'
p66
sg13
F37.0
sg14
F0.0
sg15
F0.0
sg16
F2565.0
sg17
F0.0
sg18
F38.0
sg19
F111122.0
sg20
F0.0
sg21
F700000.0
sg22
F698920.0
sg23
F69.65789473684211
sg24
F13.0
sg25
F698920.0
sg26
F257486.0
sg27
F1545059.0
sg28
F0.0
ssS'GIBBS DANA R'
p67
(dp68
g3
F0.0
sg4
F169.0
sg5
F0.5220884780687869
sg6
F504610.0
sg7
F0.0
sg8
F0.0
sg9
I00
sg10
F461912.0
sg11
S'dana.gibbs@enron.com'
p69
sg13
F0.0
sg14
F0.0
sg15
F0.0
sg16
F23.0
sg17
F0.0
sg18
F12.0
sg19
F0.0
sg20
F0.0
sg21
F0.0
sg22
F2218275.0
sg23
F14.083333333333334
sg24
F0.0
sg25
F0.0
sg26
F0.0
sg27
F966522.0
sg28
F2218275.0
ssS'LOWRY CHARLES P'
p70
(dp71
g3
F0.0
sg4
F0.0
sg5
F0.0
sg6
F0.0
sg7
F0.0
sg8
F0.0
sg9
I00
sg10
F0.0
sg11
I0
sg13
F0.0
sg14
F0.0
sg15
F-153686.0
sg16
F0.0
sg17
F0.0
sg18
F0.0
sg19
F0.0
sg20
F0.0
sg21
F0.0
sg22
F372205.0
sg23
F0.0
sg24
F0.0
sg25
F153686.0
sg26
F0.0
sg27
F0.0
sg28
F372205.0
ssS'COLWELL WESLEY'
p72
(dp73
g3
F0.006257110352673493
sg4
F1758.0
sg5
F0.01852592421615412
sg6
F27610.0
sg7
F6.0
sg8
F16514.0
sg9
I01
sg10
F0.0
sg11
S'wes.colwell@enron.com'
p74
sg13
F240.0
sg14
F-144062.0
sg15
F0.0
sg16
F1132.0
sg17
F0.0
sg18
F40.0
sg19
F101740.0
sg20
F0.0
sg21
F1200000.0
sg22
F698242.0
sg23
F43.95
sg24
F11.0
sg25
F698242.0
sg26
F288542.0
sg27
F1490344.0
sg28
F0.0
ssS'MULLER MARK S'
p75
(dp76
g3
F0.0
sg4
F136.0
sg5
F0.2632434643839766
sg6
F842924.0
sg7
F0.75
sg8
F0.0
sg9
I00
sg10
F1725545.0
sg11
S's..muller@enron.com'
p77
sg13
F12.0
sg14
F-719000.0
sg15
F0.0
sg16
F114.0
sg17
F0.0
sg18
F16.0
sg19
F947.0
sg20
F0.0
sg21
F1100000.0
sg22
F1416848.0
sg23
F8.5
sg24
F0.0
sg25
F360528.0
sg26
F251654.0
sg27
F3202070.0
sg28
F1056320.0
ssS'JACKSON CHARLENE R'
p78
(dp79
g3
F0.07364341085271318
sg4
F258.0
sg5
F0.0
sg6
F0.0
sg7
F0.44642857142857145
sg8
F10181.0
sg9
I00
sg10
F0.0
sg11
S'charlene.jackson@enron.com'
p80
sg13
F25.0
sg14
F0.0
sg15
F0.0
sg16
F117.0
sg17
F0.0
sg18
F56.0
sg19
F2435.0
sg20
F0.0
sg21
F250000.0
sg22
F725735.0
sg23
F4.607142857142857
sg24
F19.0
sg25
F540672.0
sg26
F288558.0
sg27
F551174.0
sg28
F185063.0
ssS'WESTFAHL RICHARD K'
p81
(dp82
g3
F0.0
sg4
F0.0
sg5
F0.0
sg6
F0.0
sg7
F0.0
sg8
F51870.0
sg9
I00
sg10
F256191.0
sg11
S'dick.westfahl@enron.com'
p83
sg13
F0.0
sg14
F-10800.0
sg15
F0.0
sg16
F0.0
sg17
F0.0
sg18
F0.0
sg19
F401130.0
sg20
F0.0
sg21
F0.0
sg22
F384930.0
sg23
F0.0
sg24
F0.0
sg25
F384930.0
sg26
F63744.0
sg27
F762135.0
sg28
F0.0
ssS'WALTERS GARETH W'
p84
(dp85
g3
F0.0
sg4
F0.0
sg5
F0.6134881592495138
sg6
F53625.0
sg7
F0.0
sg8
F33785.0
sg9
I00
sg10
F0.0
sg11
I0
sg13
F0.0
sg14
F0.0
sg15
F0.0
sg16
F0.0
sg17
F0.0
sg18
F0.0
sg19
F0.0
sg20
F0.0
sg21
F0.0
sg22
F1030329.0
sg23
F0.0
sg24
F0.0
sg25
F0.0
sg26
F0.0
sg27
F87410.0
sg28
F1030329.0
ssS'WALLS JR ROBERT H'
p86
(dp87
g3
F0.0
sg4
F671.0
sg5
F0.0
sg6
F0.0
sg7
F0.11643835616438356
sg8
F50936.0
sg9
I00
sg10
F540751.0
sg11
S'rob.walls@enron.com'
p88
sg13
F17.0
sg14
F0.0
sg15
F0.0
sg16
F215.0
sg17
F0.0
sg18
F146.0
sg19
F2.0
sg20
F0.0
sg21
F850000.0
sg22
F5898997.0
sg23
F4.595890410958904
sg24
F0.0
sg25
F1552453.0
sg26
F357091.0
sg27
F1798780.0
sg28
F4346544.0
ssS'KITCHEN LOUISE'
p89
(dp90
g3
F0.023359422034918725
sg4
F8305.0
sg5
F0.0
sg6
F0.0
sg7
F0.14525462962962962
sg8
F5774.0
sg9
I00
sg10
F0.0
sg11
S'louise.kitchen@enron.com'
p91
sg13
F251.0
sg14
F0.0
sg15
F0.0
sg16
F3669.0
sg17
F0.0
sg18
F1728.0
sg19
F93925.0
sg20
F0.0
sg21
F3100000.0
sg22
F547143.0
sg23
F4.8061342592592595
sg24
F194.0
sg25
F466101.0
sg26
F271442.0
sg27
F3471141.0
sg28
F81042.0
ssS'CHAN RONNIE'
p92
(dp93
g3
F0.0
sg4
F0.0
sg5
F0.0
sg6
F0.0
sg7
F0.0
sg8
F0.0
sg9
I00
sg10
F0.0
sg11
I0
sg13
F0.0
sg14
F-98784.0
sg15
F-32460.0
sg16
F0.0
sg17
F0.0
sg18
F0.0
sg19
F0.0
sg20
F98784.0
sg21
F0.0
sg22
F0.0
sg23
F0.0
sg24
F0.0
sg25
F32460.0
sg26
F0.0
sg27
F0.0
sg28
F0.0
ssS'BELFER ROBERT'
p94
(dp95
g3
F0.0
sg4
F0.0
sg5
F-1.0
sg6
F-102500.0
sg7
F0.0
sg8
F0.0
sg9
I00
sg10
F0.0
sg11
I0
sg13
F0.0
sg14
F0.0
sg15
F44093.0
sg16
F0.0
sg17
F0.0
sg18
F0.0
sg19
F0.0
sg20
F3285.0
sg21
F0.0
sg22
F-44093.0
sg23
F0.0
sg24
F0.0
sg25
F0.0
sg26
F0.0
sg27
F102500.0
sg28
F3285.0
ssS'SHANKMAN JEFFREY A'
p96
(dp97
g3
F0.025768394908413535
sg4
F3221.0
sg5
F0.0
sg6
F0.0
sg7
F0.0350615441999254
sg8
F178979.0
sg9
I00
sg10
F554422.0
sg11
S'jeffrey.shankman@enron.com'
p98
sg13
F94.0
sg14
F0.0
sg15
F0.0
sg16
F1730.0
sg17
F0.0
sg18
F2681.0
sg19
F1191.0
sg20
F0.0
sg21
F2000000.0
sg22
F2072035.0
sg23
F1.2014173815740394
sg24
F83.0
sg25
F630137.0
sg26
F304110.0
sg27
F3038702.0
sg28
F1441898.0
ssS'WODRASKA JOHN'
p99
(dp100
g3
F0.0
sg4
F0.0
sg5
F0.0
sg6
F0.0
sg7
F0.0
sg8
F0.0
sg9
I00
sg10
F0.0
sg11
S'john.wodraska@enron.com'
p101
sg13
F0.0
sg14
F0.0
sg15
F0.0
sg16
F0.0
sg17
F0.0
sg18
F0.0
sg19
F189583.0
sg20
F0.0
sg21
F0.0
sg22
F0.0
sg23
F0.0
sg24
F0.0
sg25
F0.0
sg26
F0.0
sg27
F189583.0
sg28
F0.0
ssS'BERGSIEKER RICHARD P'
p102
(dp103
g3
F0.0
sg4
F383.0
sg5
F0.0
sg6
F0.0
sg7
F0.06779661016949153
sg8
F59175.0
sg9
I00
sg10
F180250.0
sg11
S'rick.bergsieker@enron.com'
p104
sg13
F4.0
sg14
F-485813.0
sg15
F0.0
sg16
F233.0
sg17
F0.0
sg18
F59.0
sg19
F427316.0
sg20
F0.0
sg21
F250000.0
sg22
F659249.0
sg23
F6.491525423728813
sg24
F0.0
sg25
F659249.0
sg26
F187922.0
sg27
F618850.0
sg28
F0.0
ssS'URQUHART JOHN A'
p105
(dp106
g3
F0.0
sg4
F0.0
sg5
F0.0
sg6
F0.0
sg7
F0.0
sg8
F228656.0
sg9
I00
sg10
F0.0
sg11
I0
sg13
F0.0
sg14
F-36666.0
sg15
F0.0
sg16
F0.0
sg17
F0.0
sg18
F0.0
sg19
F0.0
sg20
F36666.0
sg21
F0.0
sg22
F0.0
sg23
F0.0
sg24
F0.0
sg25
F0.0
sg26
F0.0
sg27
F228656.0
sg28
F0.0
ssS'BIBI PHILIPPE A'
p107
(dp108
g3
F0.004978220286247666
sg4
F1607.0
sg5
F0.0
sg6
F0.0
sg7
F0.575
sg8
F38559.0
sg9
I00
sg10
F369721.0
sg11
S'philippe.bibi@enron.com'
p109
sg13
F23.0
sg14
F0.0
sg15
F0.0
sg16
F1336.0
sg17
F0.0
sg18
F40.0
sg19
F425688.0
sg20
F0.0
sg21
F1000000.0
sg22
F1843816.0
sg23
F40.175
sg24
F8.0
sg25
F378082.0
sg26
F213625.0
sg27
F2047593.0
sg28
F1465734.0
ssS'PIRO JIM'
p110
(dp111
g3
F0.017241379310344827
sg4
F58.0
sg5
F0.0
sg6
F0.0
sg7
F0.0
sg8
F0.0
sg9
I00
sg10
F0.0
sg11
S'jim.piro@enron.com'
p112
sg13
F0.0
sg14
F0.0
sg15
F0.0
sg16
F3.0
sg17
F0.0
sg18
F16.0
sg19
F0.0
sg20
F0.0
sg21
F0.0
sg22
F47304.0
sg23
F3.625
sg24
F1.0
sg25
F47304.0
sg26
F0.0
sg27
F0.0
sg28
F0.0
ssS'RIEKER PAULA H'
p113
(dp114
g3
F0.03614457831325301
sg4
F1328.0
sg5
F0.19532162678555182
sg6
F214678.0
sg7
F0.4268292682926829
sg8
F33271.0
sg9
I01
sg10
F0.0
sg11
S'paula.rieker@enron.com'
p115
sg13
F35.0
sg14
F-100000.0
sg15
F0.0
sg16
F1258.0
sg17
F0.0
sg18
F82.0
sg19
F1950.0
sg20
F0.0
sg21
F700000.0
sg22
F1918887.0
sg23
F16.195121951219512
sg24
F48.0
sg25
F283649.0
sg26
F249201.0
sg27
F1099100.0
sg28
F1635238.0
ssS'WHALEY DAVID A'
p116
(dp117
g3
F0.0
sg4
F0.0
sg5
F0.0
sg6
F0.0
sg7
F0.0
sg8
F0.0
sg9
I00
sg10
F0.0
sg11
I0
sg13
F0.0
sg14
F0.0
sg15
F0.0
sg16
F0.0
sg17
F0.0
sg18
F0.0
sg19
F0.0
sg20
F0.0
sg21
F0.0
sg22
F98718.0
sg23
F0.0
sg24
F0.0
sg25
F0.0
sg26
F0.0
sg27
F0.0
sg28
F98718.0
ssS'BECK SALLY W'
p118
(dp119
g3
F0.052768284347231714
sg4
F7315.0
sg5
F0.0
sg6
F0.0
sg7
F0.033156804052498275
sg8
F37172.0
sg9
I00
sg10
F0.0
sg11
S'sally.beck@enron.com'
p120
sg13
F144.0
sg14
F0.0
sg15
F0.0
sg16
F2639.0
sg17
F0.0
sg18
F4343.0
sg19
F566.0
sg20
F0.0
sg21
F700000.0
sg22
F126027.0
sg23
F1.6843195947501728
sg24
F386.0
sg25
F126027.0
sg26
F231330.0
sg27
F969068.0
sg28
F0.0
ssS'HAUG DAVID L'
p121
(dp122
g3
F0.012216404886561954
sg4
F573.0
sg5
F0.0
sg6
F0.0
sg7
F0.21052631578947367
sg8
F475.0
sg9
I00
sg10
F0.0
sg11
S'david.haug@enron.com'
p123
sg13
F4.0
sg14
F0.0
sg15
F0.0
sg16
F471.0
sg17
F0.0
sg18
F19.0
sg19
F0.0
sg20
F0.0
sg21
F0.0
sg22
F2217299.0
sg23
F30.157894736842106
sg24
F7.0
sg25
F2217299.0
sg26
F0.0
sg27
F475.0
sg28
F0.0
ssS'ECHOLS JOHN B'
p124
(dp125
g3
F0.0
sg4
F0.0
sg5
F0.0
sg6
F0.0
sg7
F0.0
sg8
F21530.0
sg9
I00
sg10
F2234774.0
sg11
S'john.echols@enron.com'
p126
sg13
F0.0
sg14
F0.0
sg15
F0.0
sg16
F0.0
sg17
F0.0
sg18
F0.0
sg19
F53775.0
sg20
F0.0
sg21
F200000.0
sg22
F1008941.0
sg23
F0.0
sg24
F0.0
sg25
F407503.0
sg26
F182245.0
sg27
F2692324.0
sg28
F601438.0
ssS'MENDELSOHN JOHN'
p127
(dp128
g3
F0.0
sg4
F0.0
sg5
F0.0
sg6
F0.0
sg7
F0.0
sg8
F148.0
sg9
I00
sg10
F0.0
sg11
I0
sg13
F0.0
sg14
F-103750.0
sg15
F0.0
sg16
F0.0
sg17
F0.0
sg18
F0.0
sg19
F0.0
sg20
F103750.0
sg21
F0.0
sg22
F0.0
sg23
F0.0
sg24
F0.0
sg25
F0.0
sg26
F0.0
sg27
F148.0
sg28
F0.0
ssS'HICKERSON GARY J'
p129
(dp130
g3
F0.0007575757575757576
sg4
F1320.0
sg5
F0.0
sg6
F0.0
sg7
F1.4814814814814814
sg8
F98849.0
sg9
I00
sg10
F69223.0
sg11
S'gary.hickerson@enron.com'
p131
sg13
F40.0
sg14
F0.0
sg15
F0.0
sg16
F900.0
sg17
F0.0
sg18
F27.0
sg19
F1936.0
sg20
F0.0
sg21
F1700000.0
sg22
F441096.0
sg23
F48.888888888888886
sg24
F1.0
sg25
F441096.0
sg26
F211788.0
sg27
F2081796.0
sg28
F0.0
ssS'CLINE KENNETH W'
p132
(dp133
g3
F0.0
sg4
F0.0
sg5
F0.0
sg6
F0.0
sg7
F0.0
sg8
F0.0
sg9
I00
sg10
F0.0
sg11
I0
sg13
F0.0
sg14
F0.0
sg15
F-472568.0
sg16
F0.0
sg17
F0.0
sg18
F0.0
sg19
F0.0
sg20
F0.0
sg21
F0.0
sg22
F189518.0
sg23
F0.0
sg24
F0.0
sg25
F662086.0
sg26
F0.0
sg27
F0.0
sg28
F0.0
ssS'LEWIS RICHARD'
p134
(dp135
g3
F0.0
sg4
F952.0
sg5
F0.0
sg6
F0.0
sg7
F0.38461538461538464
sg8
F0.0
sg9
I00
sg10
F0.0
sg11
S'richard.lewis@enron.com'
p136
sg13
F10.0
sg14
F0.0
sg15
F0.0
sg16
F739.0
sg17
F0.0
sg18
F26.0
sg19
F0.0
sg20
F0.0
sg21
F0.0
sg22
F850477.0
sg23
F36.61538461538461
sg24
F0.0
sg25
F0.0
sg26
F0.0
sg27
F0.0
sg28
F850477.0
ssS'HAYES ROBERT E'
p137
(dp138
g3
F0.0
sg4
F504.0
sg5
F1.0
sg6
F7961.0
sg7
F1.3333333333333333
sg8
F0.0
sg9
I00
sg10
F0.0
sg11
S'robert.hayes@enron.com'
p139
sg13
F16.0
sg14
F0.0
sg15
F0.0
sg16
F50.0
sg17
F0.0
sg18
F12.0
sg19
F0.0
sg20
F0.0
sg21
F0.0
sg22
F151418.0
sg23
F42.0
sg24
F0.0
sg25
F151418.0
sg26
F0.0
sg27
F7961.0
sg28
F0.0
ssS'KOPPER MICHAEL J'
p140
(dp141
g3
F0.0
sg4
F0.0
sg5
F0.0
sg6
F0.0
sg7
F0.0
sg8
F118134.0
sg9
I01
sg10
F602671.0
sg11
S'michael.kopper@enron.com'
p142
sg13
F0.0
sg14
F0.0
sg15
F0.0
sg16
F0.0
sg17
F0.0
sg18
F0.0
sg19
F907502.0
sg20
F0.0
sg21
F800000.0
sg22
F985032.0
sg23
F0.0
sg24
F0.0
sg25
F985032.0
sg26
F224305.0
sg27
F2652612.0
sg28
F0.0
ssS'LEFF DANIEL P'
p143
(dp144
g3
F0.004961020552799433
sg4
F2822.0
sg5
F0.0
sg6
F0.0
sg7
F1.0634920634920635
sg8
F0.0
sg9
I00
sg10
F1387399.0
sg11
S'dan.leff@enron.com'
p145
sg13
F67.0
sg14
F0.0
sg15
F0.0
sg16
F2672.0
sg17
F0.0
sg18
F63.0
sg19
F3083.0
sg20
F0.0
sg21
F1000000.0
sg22
F360528.0
sg23
F44.79365079365079
sg24
F14.0
sg25
F360528.0
sg26
F273746.0
sg27
F2664228.0
sg28
F0.0
ssS'LAVORATO JOHN J'
p146
(dp147
g3
F0.05661936905909905
sg4
F7259.0
sg5
F0.0
sg6
F0.0
sg7
F0.20425531914893616
sg8
F49537.0
sg9
I00
sg10
F2035380.0
sg11
S'john.lavorato@enron.com'
p148
sg13
F528.0
sg14
F0.0
sg15
F0.0
sg16
F3962.0
sg17
F0.0
sg18
F2585.0
sg19
F1552.0
sg20
F0.0
sg21
F8000000.0
sg22
F5167144.0
sg23
F2.8081237911025143
sg24
F411.0
sg25
F1008149.0
sg26
F339288.0
sg27
F10425757.0
sg28
F4158995.0
ssS'BERBERIAN DAVID'
p149
(dp150
g3
F0.0
sg4
F0.0
sg5
F0.0
sg6
F0.0
sg7
F0.0
sg8
F11892.0
sg9
I00
sg10
F0.0
sg11
S'david.berberian@enron.com'
p151
sg13
F0.0
sg14
F0.0
sg15
F0.0
sg16
F0.0
sg17
F0.0
sg18
F0.0
sg19
F0.0
sg20
F0.0
sg21
F0.0
sg22
F2493616.0
sg23
F0.0
sg24
F0.0
sg25
F869220.0
sg26
F216582.0
sg27
F228474.0
sg28
F1624396.0
ssS'DETMERING TIMOTHY J'
p152
(dp153
g3
F0.0
sg4
F0.0
sg5
F0.7266473128045141
sg6
F875307.0
sg7
F0.0
sg8
F52255.0
sg9
I00
sg10
F415657.0
sg11
S'timothy.detmering@enron.com'
p154
sg13
F0.0
sg14
F-775241.0
sg15
F-315068.0
sg16
F0.0
sg17
F0.0
sg18
F0.0
sg19
F1105.0
sg20
F0.0
sg21
F425000.0
sg22
F2027865.0
sg23
F0.0
sg24
F0.0
sg25
F315068.0
sg26
F210500.0
sg27
F1204583.0
sg28
F2027865.0
ssS'WAKEHAM JOHN'
p155
(dp156
g3
F0.0
sg4
F0.0
sg5
F0.0
sg6
F0.0
sg7
F0.0
sg8
F103773.0
sg9
I00
sg10
F0.0
sg11
I0
sg13
F0.0
sg14
F0.0
sg15
F0.0
sg16
F0.0
sg17
F0.0
sg18
F0.0
sg19
F0.0
sg20
F109298.0
sg21
F0.0
sg22
F0.0
sg23
F0.0
sg24
F0.0
sg25
F0.0
sg26
F0.0
sg27
F213071.0
sg28
F0.0
ssS'POWERS WILLIAM'
p157
(dp158
g3
F0.0
sg4
F653.0
sg5
F0.0
sg6
F0.0
sg7
F0.0
sg8
F0.0
sg9
I00
sg10
F0.0
sg11
S'ken.powers@enron.com'
p159
sg13
F0.0
sg14
F-17500.0
sg15
F0.0
sg16
F12.0
sg17
F0.0
sg18
F26.0
sg19
F0.0
sg20
F17500.0
sg21
F0.0
sg22
F0.0
sg23
F25.115384615384617
sg24
F0.0
sg25
F0.0
sg26
F0.0
sg27
F0.0
sg28
F0.0
ssS'GOLD JOSEPH'
p160
(dp161
g3
F0.0
sg4
F0.0
sg5
F0.0
sg6
F0.0
sg7
F0.0
sg8
F0.0
sg9
I00
sg10
F304805.0
sg11
S'joe.gold@enron.com'
p162
sg13
F0.0
sg14
F0.0
sg15
F0.0
sg16
F0.0
sg17
F0.0
sg18
F0.0
sg19
F819288.0
sg20
F0.0
sg21
F750000.0
sg22
F877611.0
sg23
F0.0
sg24
F0.0
sg25
F441096.0
sg26
F272880.0
sg27
F2146973.0
sg28
F436515.0
ssS'BANNANTINE JAMES M'
p163
(dp164
g3
F0.0
sg4
F566.0
sg5
F0.0
sg6
F0.0
sg7
F1.3448275862068966
sg8
F56301.0
sg9
I00
sg10
F0.0
sg11
S'james.bannantine@enron.com'
p165
sg13
F39.0
sg14
F-5104.0
sg15
F-560222.0
sg16
F465.0
sg17
F0.0
sg18
F29.0
sg19
F864523.0
sg20
F0.0
sg21
F0.0
sg22
F5243487.0
sg23
F19.517241379310345
sg24
F0.0
sg25
F1757552.0
sg26
F477.0
sg27
F916197.0
sg28
F4046157.0
ssS'DUNCAN JOHN H'
p166
(dp167
g3
F0.0
sg4
F0.0
sg5
F0.0
sg6
F0.0
sg7
F0.0
sg8
F0.0
sg9
I00
sg10
F0.0
sg11
I0
sg13
F0.0
sg14
F-25000.0
sg15
F0.0
sg16
F0.0
sg17
F0.0
sg18
F0.0
sg19
F0.0
sg20
F102492.0
sg21
F0.0
sg22
F371750.0
sg23
F0.0
sg24
F0.0
sg25
F0.0
sg26
F0.0
sg27
F77492.0
sg28
F371750.0
ssS'SHAPIRO RICHARD S'
p168
(dp169
g3
F0.004290712258234867
sg4
F15149.0
sg5
F0.0
sg6
F0.0
sg7
F0.060905349794238686
sg8
F137767.0
sg9
I00
sg10
F0.0
sg11
S'richard.shapiro@enron.com'
p170
sg13
F74.0
sg14
F0.0
sg15
F0.0
sg16
F4527.0
sg17
F0.0
sg18
F1215.0
sg19
F705.0
sg20
F0.0
sg21
F650000.0
sg22
F987001.0
sg23
F12.468312757201646
sg24
F65.0
sg25
F379164.0
sg26
F269076.0
sg27
F1057548.0
sg28
F607837.0
ssS'SHERRIFF JOHN R'
p171
(dp172
g3
F0.0072168183244430495
sg4
F3187.0
sg5
F0.0
sg6
F0.0
sg7
F0.30434782608695654
sg8
F0.0
sg9
I00
sg10
F554422.0
sg11
S'john.sherriff@enron.com'
p173
sg13
F28.0
sg14
F0.0
sg15
F0.0
sg16
F2103.0
sg17
F0.0
sg18
F92.0
sg19
F1852186.0
sg20
F0.0
sg21
F1500000.0
sg22
F3128982.0
sg23
F34.641304347826086
sg24
F23.0
sg25
F1293424.0
sg26
F428780.0
sg27
F4335388.0
sg28
F1835558.0
ssS'SHELBY REX'
p174
(dp175
g3
F0.06222222222222222
sg4
F225.0
sg5
F0.0
sg6
F0.0
sg7
F0.3333333333333333
sg8
F22884.0
sg9
I01
sg10
F0.0
sg11
S'rex.shelby@enron.com'
p176
sg13
F13.0
sg14
F-4167.0
sg15
F0.0
sg16
F91.0
sg17
F0.0
sg18
F39.0
sg19
F1573324.0
sg20
F0.0
sg21
F200000.0
sg22
F2493616.0
sg23
F5.769230769230769
sg24
F14.0
sg25
F869220.0
sg26
F211844.0
sg27
F2003885.0
sg28
F1624396.0
ssS'LEMAISTRE CHARLES'
p177
(dp178
g3
F0.0
sg4
F0.0
sg5
F0.0
sg6
F0.0
sg7
F0.0
sg8
F0.0
sg9
I00
sg10
F0.0
sg11
I0
sg13
F0.0
sg14
F-25000.0
sg15
F0.0
sg16
F0.0
sg17
F0.0
sg18
F0.0
sg19
F0.0
sg20
F112492.0
sg21
F0.0
sg22
F412878.0
sg23
F0.0
sg24
F0.0
sg25
F0.0
sg26
F0.0
sg27
F87492.0
sg28
F412878.0
ssS'DEFFNER JOSEPH M'
p179
(dp180
g3
F0.0056022408963585435
sg4
F714.0
sg5
F0.0
sg6
F0.0
sg7
F1.554054054054054
sg8
F41626.0
sg9
I00
sg10
F335349.0
sg11
S'joseph.deffner@enron.com'
p181
sg13
F115.0
sg14
F0.0
sg15
F0.0
sg16
F552.0
sg17
F0.0
sg18
F74.0
sg19
F25553.0
sg20
F0.0
sg21
F600000.0
sg22
F159211.0
sg23
F9.64864864864865
sg24
F4.0
sg25
F141833.0
sg26
F206121.0
sg27
F1208649.0
sg28
F17378.0
ssS'KISHKILL JOSEPH G'
p182
(dp183
g3
F0.0
sg4
F0.0
sg5
F0.0
sg6
F0.0
sg7
F0.0
sg8
F116335.0
sg9
I00
sg10
F0.0
sg11
S'joe.kishkill@enron.com'
p184
sg13
F0.0
sg14
F-51042.0
sg15
F0.0
sg16
F0.0
sg17
F0.0
sg18
F0.0
sg19
F465357.0
sg20
F0.0
sg21
F0.0
sg22
F1034346.0
sg23
F0.0
sg24
F0.0
sg25
F1034346.0
sg26
F174246.0
sg27
F704896.0
sg28
F0.0
ssS'WHALLEY LAWRENCE G'
p185
(dp186
g3
F0.003987373317826882
sg4
F6019.0
sg5
F0.0
sg6
F0.0
sg7
F0.3345323741007194
sg8
F57838.0
sg9
I00
sg10
F808346.0
sg11
S'greg.whalley@enron.com'
p187
sg13
F186.0
sg14
F0.0
sg15
F0.0
sg16
F3920.0
sg17
F0.0
sg18
F556.0
sg19
F301026.0
sg20
F0.0
sg21
F3000000.0
sg22
F6079137.0
sg23
F10.825539568345324
sg24
F24.0
sg25
F2796177.0
sg26
F510364.0
sg27
F4677574.0
sg28
F3282960.0
ssS'MCCARTY DANNY J'
p188
(dp189
g3
F0.0013956734124214933
sg4
F1433.0
sg5
F0.0
sg6
F0.0
sg7
F0.11627906976744186
sg8
F0.0
sg9
I00
sg10
F0.0
sg11
S'danny.mccarty@enron.com'
p190
sg13
F25.0
sg14
F0.0
sg15
F0.0
sg16
F508.0
sg17
F0.0
sg18
F215.0
sg19
F0.0
sg20
F0.0
sg21
F0.0
sg22
F758931.0
sg23
F6.665116279069768
sg24
F2.0
sg25
F94556.0
sg26
F0.0
sg27
F0.0
sg28
F664375.0
ssS'MCCONNELL MICHAEL S'
p191
(dp192
g3
F0.058275758486031844
sg4
F3329.0
sg5
F0.0
sg6
F0.0
sg7
F0.03355215171407731
sg8
F81364.0
sg9
I00
sg10
F554422.0
sg11
S'mike.mcconnell@enron.com'
p193
sg13
F92.0
sg14
F0.0
sg15
F0.0
sg16
F2189.0
sg17
F0.0
sg18
F2742.0
sg19
F540.0
sg20
F0.0
sg21
F1100000.0
sg22
F3101279.0
sg23
F1.2140773158278628
sg24
F194.0
sg25
F1478269.0
sg26
F365038.0
sg27
F2101364.0
sg28
F1623010.0
ssS'DELAINEY DAVID W'
p194
(dp195
g3
F0.19689621726479145
sg4
F3093.0
sg5
F0.0
sg6
F0.0
sg7
F0.021505376344086023
sg8
F86174.0
sg9
I01
sg10
F1294981.0
sg11
S'david.delainey@enron.com'
p196
sg13
F66.0
sg14
F0.0
sg15
F0.0
sg16
F2097.0
sg17
F0.0
sg18
F3069.0
sg19
F1661.0
sg20
F0.0
sg21
F3000000.0
sg22
F3614261.0
sg23
F1.007820136852395
sg24
F609.0
sg25
F1323148.0
sg26
F365163.0
sg27
F4747979.0
sg28
F2291113.0
ssS'SULLIVAN-SHAKLOVITZ COLLEEN'
p197
(dp198
g3
F0.0
sg4
F0.0
sg5
F0.18211027901968868
sg6
F181993.0
sg7
F0.0
sg8
F0.0
sg9
I00
sg10
F554422.0
sg11
I0
sg13
F0.0
sg14
F0.0
sg15
F0.0
sg16
F0.0
sg17
F0.0
sg18
F0.0
sg19
F162.0
sg20
F0.0
sg21
F100000.0
sg22
F1362375.0
sg23
F0.0
sg24
F0.0
sg25
F0.0
sg26
F162779.0
sg27
F999356.0
sg28
F1362375.0
ssS'WROBEL BRUCE'
p199
(dp200
g3
F0.0
sg4
F0.0
sg5
F0.0
sg6
F0.0
sg7
F0.0
sg8
F0.0
sg9
I00
sg10
F0.0
sg11
I0
sg13
F0.0
sg14
F0.0
sg15
F0.0
sg16
F0.0
sg17
F0.0
sg18
F0.0
sg19
F0.0
sg20
F0.0
sg21
F0.0
sg22
F139130.0
sg23
F0.0
sg24
F0.0
sg25
F0.0
sg26
F0.0
sg27
F0.0
sg28
F139130.0
ssS'LINDHOLM TOD A'
p201
(dp202
g3
F0.0
sg4
F0.0
sg5
F0.23299185170723688
sg6
F204075.0
sg7
F0.0
sg8
F57727.0
sg9
I00
sg10
F175000.0
sg11
S'tod.lindholm@enron.com'
p203
sg13
F0.0
sg14
F0.0
sg15
F0.0
sg16
F0.0
sg17
F0.0
sg18
F0.0
sg19
F2630.0
sg20
F0.0
sg21
F200000.0
sg22
F3064208.0
sg23
F0.0
sg24
F0.0
sg25
F514847.0
sg26
F236457.0
sg27
F875889.0
sg28
F2549361.0
ssS'MEYER JEROME J'
p204
(dp205
g3
F0.0
sg4
F0.0
sg5
F0.0
sg6
F0.0
sg7
F0.0
sg8
F2151.0
sg9
I00
sg10
F0.0
sg11
I0
sg13
F0.0
sg14
F-38346.0
sg15
F0.0
sg16
F0.0
sg17
F0.0
sg18
F0.0
sg19
F0.0
sg20
F38346.0
sg21
F0.0
sg22
F0.0
sg23
F0.0
sg24
F0.0
sg25
F0.0
sg26
F0.0
sg27
F2151.0
sg28
F0.0
ssS'LAY KENNETH L'
p206
(dp207
g3
F0.003744441844137608
sg4
F4273.0
sg5
F0.001959360811005097
sg6
F202911.0
sg7
F3.4166666666666665
sg8
F99832.0
sg9
I01
sg10
F3600000.0
sg11
S'kenneth.lay@enron.com'
p208
sg13
F123.0
sg14
F-300000.0
sg15
F0.0
sg16
F2411.0
sg17
F81525000.0
sg18
F36.0
sg19
F10359729.0
sg20
F0.0
sg21
F7000000.0
sg22
F49110078.0
sg23
F118.69444444444444
sg24
F16.0
sg25
F14761694.0
sg26
F1072321.0
sg27
F103559793.0
sg28
F34348384.0
ssS'BUTTS ROBERT H'
p209
(dp210
g3
F0.0
sg4
F0.0
sg5
F0.0
sg6
F0.0
sg7
F0.0
sg8
F9410.0
sg9
I00
sg10
F175000.0
sg11
S'bob.butts@enron.com'
p211
sg13
F0.0
sg14
F-75000.0
sg15
F0.0
sg16
F0.0
sg17
F0.0
sg18
F0.0
sg19
F150656.0
sg20
F0.0
sg21
F750000.0
sg22
F417619.0
sg23
F0.0
sg24
F0.0
sg25
F417619.0
sg26
F261516.0
sg27
F1271582.0
sg28
F0.0
ssS'OLSON CINDY K'
p212
(dp213
g3
F0.01266891891891892
sg4
F1184.0
sg5
F0.05880639276247638
sg6
F77716.0
sg7
F0.38461538461538464
sg8
F63791.0
sg9
I00
sg10
F100000.0
sg11
S'cindy.olson@enron.com'
p214
sg13
F20.0
sg14
F0.0
sg15
F0.0
sg16
F856.0
sg17
F0.0
sg18
F52.0
sg19
F972.0
sg20
F0.0
sg21
F750000.0
sg22
F2606763.0
sg23
F22.76923076923077
sg24
F15.0
sg25
F969729.0
sg26
F329078.0
sg27
F1321557.0
sg28
F1637034.0
ssS'MCDONALD REBECCA'
p215
(dp216
g3
F0.0011185682326621924
sg4
F894.0
sg5
F0.0
sg6
F0.0
sg7
F4.153846153846154
sg8
F0.0
sg9
I00
sg10
F0.0
sg11
S'rebecca.mcdonald@enron.com'
p217
sg13
F54.0
sg14
F0.0
sg15
F0.0
sg16
F720.0
sg17
F0.0
sg18
F13.0
sg19
F0.0
sg20
F0.0
sg21
F0.0
sg22
F1691366.0
sg23
F68.76923076923077
sg24
F1.0
sg25
F934065.0
sg26
F0.0
sg27
F0.0
sg28
F757301.0
ssS'CUMBERLAND MICHAEL S'
p218
(dp219
g3
F0.0
sg4
F0.0
sg5
F0.0
sg6
F0.0
sg7
F0.0
sg8
F22344.0
sg9
I00
sg10
F275000.0
sg11
I0
sg13
F0.0
sg14
F0.0
sg15
F0.0
sg16
F0.0
sg17
F0.0
sg18
F0.0
sg19
F713.0
sg20
F0.0
sg21
F325000.0
sg22
F207940.0
sg23
F0.0
sg24
F0.0
sg25
F207940.0
sg26
F184899.0
sg27
F807956.0
sg28
F0.0
ssS'GAHN ROBERT S'
p220
(dp221
g3
F0.0
sg4
F0.0
sg5
F0.08119389063775213
sg6
F73122.0
sg7
F0.0
sg8
F50080.0
sg9
I00
sg10
F0.0
sg11
I0
sg13
F0.0
sg14
F-1042.0
sg15
F0.0
sg16
F0.0
sg17
F0.0
sg18
F0.0
sg19
F76547.0
sg20
F0.0
sg21
F509870.0
sg22
F318607.0
sg23
F0.0
sg24
F0.0
sg25
F235370.0
sg26
F192008.0
sg27
F900585.0
sg28
F83237.0
ssS'MCCLELLAN GEORGE'
p222
(dp223
g3
F0.0
sg4
F1744.0
sg5
F0.0
sg6
F0.0
sg7
F1.0612244897959184
sg8
F228763.0
sg9
I00
sg10
F0.0
sg11
S'george.mcclellan@enron.com'
p224
sg13
F52.0
sg14
F-125000.0
sg15
F0.0
sg16
F1469.0
sg17
F0.0
sg18
F49.0
sg19
F51587.0
sg20
F0.0
sg21
F900000.0
sg22
F947861.0
sg23
F35.59183673469388
sg24
F0.0
sg25
F441096.0
sg26
F263413.0
sg27
F1318763.0
sg28
F506765.0
ssS'HERMANN ROBERT J'
p225
(dp226
g3
F0.0
sg4
F0.0
sg5
F0.0
sg6
F0.0
sg7
F0.0
sg8
F48357.0
sg9
I00
sg10
F150000.0
sg11
S'robert.hermann@enron.com'
p227
sg13
F0.0
sg14
F-280000.0
sg15
F0.0
sg16
F0.0
sg17
F0.0
sg18
F0.0
sg19
F416441.0
sg20
F0.0
sg21
F700000.0
sg22
F668132.0
sg23
F0.0
sg24
F0.0
sg25
F480632.0
sg26
F262663.0
sg27
F1297461.0
sg28
F187500.0
ssS'SCRIMSHAW MATTHEW'
p228
(dp229
g3
F0.0
sg4
F0.0
sg5
F0.0
sg6
F0.0
sg7
F0.0
sg8
F0.0
sg9
I00
sg10
F0.0
sg11
S'matthew.scrimshaw@enron.com'
p230
sg13
F0.0
sg14
F0.0
sg15
F0.0
sg16
F0.0
sg17
F0.0
sg18
F0.0
sg19
F0.0
sg20
F0.0
sg21
F0.0
sg22
F759557.0
sg23
F0.0
sg24
F0.0
sg25
F0.0
sg26
F0.0
sg27
F0.0
sg28
F759557.0
ssS'GATHMANN WILLIAM D'
p231
(dp232
g3
F0.0
sg4
F0.0
sg5
F0.0
sg6
F0.0
sg7
F0.0
sg8
F0.0
sg9
I00
sg10
F0.0
sg11
I0
sg13
F0.0
sg14
F0.0
sg15
F-72419.0
sg16
F0.0
sg17
F0.0
sg18
F0.0
sg19
F0.0
sg20
F0.0
sg21
F0.0
sg22
F1945360.0
sg23
F0.0
sg24
F0.0
sg25
F264013.0
sg26
F0.0
sg27
F0.0
sg28
F1753766.0
ssS'HAEDICKE MARK E'
p233
(dp234
g3
F0.015215764529807932
sg4
F4009.0
sg5
F0.5590802435304925
sg6
F2157527.0
sg7
F0.09273570324574962
sg8
F76169.0
sg9
I00
sg10
F983346.0
sg11
S'mark.haedicke@enron.com'
p235
sg13
F180.0
sg14
F-934484.0
sg15
F-329825.0
sg16
F1847.0
sg17
F0.0
sg18
F1941.0
sg19
F52382.0
sg20
F0.0
sg21
F1150000.0
sg22
F803094.0
sg23
F2.06543019062339
sg24
F61.0
sg25
F524169.0
sg26
F374125.0
sg27
F3859065.0
sg28
F608750.0
ssS'BOWEN JR RAYMOND M'
p236
(dp237
g3
F0.008073196986006458
sg4
F1858.0
sg5
F0.0
sg6
F0.0
sg7
F5.185185185185185
sg8
F65907.0
sg9
I01
sg10
F974293.0
sg11
S'raymond.bowen@enron.com'
p238
sg13
F140.0
sg14
F-833.0
sg15
F0.0
sg16
F1593.0
sg17
F0.0
sg18
F27.0
sg19
F1621.0
sg20
F0.0
sg21
F1350000.0
sg22
F252055.0
sg23
F68.81481481481481
sg24
F15.0
sg25
F252055.0
sg26
F278601.0
sg27
F2669589.0
sg28
F0.0
ssS'GILLIS JOHN'
p239
(dp240
g3
F0.0
sg4
F0.0
sg5
F0.0
sg6
F0.0
sg7
F0.0
sg8
F0.0
sg9
I00
sg10
F0.0
sg11
I0
sg13
F0.0
sg14
F0.0
sg15
F0.0
sg16
F0.0
sg17
F0.0
sg18
F0.0
sg19
F0.0
sg20
F0.0
sg21
F0.0
sg22
F85641.0
sg23
F0.0
sg24
F0.0
sg25
F75838.0
sg26
F0.0
sg27
F0.0
sg28
F9803.0
ssS'FITZGERALD JAY L'
p241
(dp242
g3
F0.008547008547008548
sg4
F936.0
sg5
F0.0
sg6
F0.0
sg7
F0.0625
sg8
F23870.0
sg9
I00
sg10
F556416.0
sg11
S'jay.fitzgerald@enron.com'
p243
sg13
F1.0
sg14
F0.0
sg15
F0.0
sg16
F723.0
sg17
F0.0
sg18
F16.0
sg19
F285414.0
sg20
F0.0
sg21
F350000.0
sg22
F1621236.0
sg23
F58.5
sg24
F8.0
sg25
F956775.0
sg26
F199157.0
sg27
F1414857.0
sg28
F664461.0
ssS'MORAN MICHAEL P'
p244
(dp245
g3
F0.0
sg4
F672.0
sg5
F0.0
sg6
F0.0
sg7
F0.0
sg8
F0.0
sg9
I00
sg10
F0.0
sg11
S'michael.moran@enron.com'
p246
sg13
F0.0
sg14
F0.0
sg15
F0.0
sg16
F127.0
sg17
F0.0
sg18
F19.0
sg19
F0.0
sg20
F0.0
sg21
F0.0
sg22
F221141.0
sg23
F35.36842105263158
sg24
F0.0
sg25
F161602.0
sg26
F0.0
sg27
F0.0
sg28
F59539.0
ssS'REDMOND BRIAN L'
p247
(dp248
g3
F0.029323758228605626
sg4
F1671.0
sg5
F0.0
sg6
F0.0
sg7
F0.9230769230769231
sg8
F14689.0
sg9
I00
sg10
F0.0
sg11
S'brian.redmond@enron.com'
p249
sg13
F204.0
sg14
F0.0
sg15
F0.0
sg16
F1063.0
sg17
F0.0
sg18
F221.0
sg19
F0.0
sg20
F0.0
sg21
F0.0
sg22
F7890324.0
sg23
F7.5610859728506785
sg24
F49.0
sg25
F381285.0
sg26
F96840.0
sg27
F111529.0
sg28
F7509039.0
ssS'BAZELIDES PHILIP J'
p250
(dp251
g3
F0.0
sg4
F0.0
sg5
F0.7960299301505809
sg6
F684694.0
sg7
F0.0
sg8
F0.0
sg9
I00
sg10
F93750.0
sg11
I0
sg13
F0.0
sg14
F0.0
sg15
F0.0
sg16
F0.0
sg17
F0.0
sg18
F0.0
sg19
F874.0
sg20
F0.0
sg21
F0.0
sg22
F1599641.0
sg23
F0.0
sg24
F0.0
sg25
F0.0
sg26
F80818.0
sg27
F860136.0
sg28
F1599641.0
ssS'BELDEN TIMOTHY N'
p252
(dp253
g3
F0.013515204605180828
sg4
F7991.0
sg5
F0.38970505104850744
sg6
F2144013.0
sg7
F0.47107438016528924
sg8
F17355.0
sg9
I01
sg10
F0.0
sg11
S'tim.belden@enron.com'
p254
sg13
F228.0
sg14
F-2334434.0
sg15
F0.0
sg16
F5521.0
sg17
F0.0
sg18
F484.0
sg19
F210698.0
sg20
F0.0
sg21
F5249999.0
sg22
F1110705.0
sg23
F16.510330578512395
sg24
F108.0
sg25
F157569.0
sg26
F213999.0
sg27
F5501630.0
sg28
F953136.0
ssS'DURAN WILLIAM D'
p255
(dp256
g3
F0.00331858407079646
sg4
F904.0
sg5
F0.0
sg6
F0.0
sg7
F8.833333333333334
sg8
F25785.0
sg9
I00
sg10
F1105218.0
sg11
S'w.duran@enron.com'
p257
sg13
F106.0
sg14
F0.0
sg15
F0.0
sg16
F599.0
sg17
F0.0
sg18
F12.0
sg19
F1568.0
sg20
F0.0
sg21
F750000.0
sg22
F1640910.0
sg23
F75.33333333333333
sg24
F3.0
sg25
F189041.0
sg26
F210692.0
sg27
F2093263.0
sg28
F1451869.0
ssS'THORN TERENCE H'
p258
(dp259
g3
F0.0
sg4
F266.0
sg5
F0.018197317908877363
sg6
F16586.0
sg7
F0.0
sg8
F46145.0
sg9
I00
sg10
F200000.0
sg11
S'terence.thorn@enron.com'
p260
sg13
F0.0
sg14
F0.0
sg15
F0.0
sg16
F73.0
sg17
F0.0
sg18
F41.0
sg19
F426629.0
sg20
F0.0
sg21
F0.0
sg22
F4817796.0
sg23
F6.487804878048781
sg24
F0.0
sg25
F365320.0
sg26
F222093.0
sg27
F911453.0
sg28
F4452476.0
ssS'FASTOW ANDREW S'
p261
(dp262
g3
F0.0
sg4
F0.0
sg5
F0.0
sg6
F0.0
sg7
F0.0
sg8
F55921.0
sg9
I01
sg10
F1736055.0
sg11
S'andrew.fastow@enron.com'
p263
sg13
F0.0
sg14
F-1386055.0
sg15
F0.0
sg16
F0.0
sg17
F0.0
sg18
F0.0
sg19
F277464.0
sg20
F0.0
sg21
F1300000.0
sg22
F1794412.0
sg23
F0.0
sg24
F0.0
sg25
F1794412.0
sg26
F440698.0
sg27
F2424083.0
sg28
F0.0
ssS'FOY JOE'
p264
(dp265
g3
F0.0
sg4
F57.0
sg5
F1.0
sg6
F181755.0
sg7
F0.0
sg8
F0.0
sg9
I00
sg10
F0.0
sg11
S'tracy.foy@enron.com'
p266
sg13
F0.0
sg14
F0.0
sg15
F0.0
sg16
F2.0
sg17
F0.0
sg18
F13.0
sg19
F0.0
sg20
F0.0
sg21
F0.0
sg22
F343434.0
sg23
F4.384615384615385
sg24
F0.0
sg25
F0.0
sg26
F0.0
sg27
F181755.0
sg28
F343434.0
ssS'CALGER CHRISTOPHER F'
p267
(dp268
g3
F0.00962278675904542
sg4
F2598.0
sg5
F0.0
sg6
F0.0
sg7
F1.3819444444444444
sg8
F35818.0
sg9
I01
sg10
F375304.0
sg11
S'christopher.calger@enron.com'
p269
sg13
F199.0
sg14
F-262500.0
sg15
F0.0
sg16
F2188.0
sg17
F0.0
sg18
F144.0
sg19
F486.0
sg20
F0.0
sg21
F1250000.0
sg22
F126027.0
sg23
F18.041666666666668
sg24
F25.0
sg25
F126027.0
sg26
F240189.0
sg27
F1639297.0
sg28
F0.0
ssS'RICE KENNETH D'
p270
(dp271
g3
F0.004419889502762431
sg4
F905.0
sg5
F0.0
sg6
F0.0
sg7
F2.3333333333333335
sg8
F46950.0
sg9
I01
sg10
F1617011.0
sg11
S'ken.rice@enron.com'
p272
sg13
F42.0
sg14
F-3504386.0
sg15
F0.0
sg16
F864.0
sg17
F0.0
sg18
F18.0
sg19
F174839.0
sg20
F0.0
sg21
F1750000.0
sg22
F22542539.0
sg23
F50.27777777777778
sg24
F4.0
sg25
F2748364.0
sg26
F420636.0
sg27
F505050.0
sg28
F19794175.0
ssS'KAMINSKI WINCENTY J'
p273
(dp274
g3
F0.03711742999782939
sg4
F4607.0
sg5
F0.0
sg6
F0.0
sg7
F0.002853563474387528
sg8
F83585.0
sg9
I00
sg10
F323466.0
sg11
S'vince.kaminski@enron.com'
p275
sg13
F41.0
sg14
F0.0
sg15
F0.0
sg16
F583.0
sg17
F0.0
sg18
F14368.0
sg19
F4669.0
sg20
F0.0
sg21
F400000.0
sg22
F976037.0
sg23
F0.3206430957683742
sg24
F171.0
sg25
F126027.0
sg26
F275101.0
sg27
F1086821.0
sg28
F850010.0
ssS'COX DAVID'
p276
(dp277
g3
F0.0392156862745098
sg4
F102.0
sg5
F0.0
sg6
F0.0
sg7
F0.0
sg8
F27861.0
sg9
I00
sg10
F0.0
sg11
S'chip.cox@enron.com'
p278
sg13
F0.0
sg14
F-41250.0
sg15
F0.0
sg16
F71.0
sg17
F0.0
sg18
F33.0
sg19
F494.0
sg20
F0.0
sg21
F800000.0
sg22
F495633.0
sg23
F3.090909090909091
sg24
F4.0
sg25
F378082.0
sg26
F314288.0
sg27
F1101393.0
sg28
F117551.0
ssS'OVERDYKE JR JERE C'
p279
(dp280
g3
F0.0
sg4
F0.0
sg5
F0.0
sg6
F0.0
sg7
F0.0
sg8
F18834.0
sg9
I00
sg10
F135836.0
sg11
S'jere.overdyke@enron.com'
p281
sg13
F0.0
sg14
F0.0
sg15
F0.0
sg16
F0.0
sg17
F0.0
sg18
F0.0
sg19
F176.0
sg20
F0.0
sg21
F0.0
sg22
F7307594.0
sg23
F0.0
sg24
F0.0
sg25
F2041016.0
sg26
F94941.0
sg27
F249787.0
sg28
F5266578.0
ssS'PEREIRA PAULO V. FERRAZ'
p282
(dp283
g3
F0.0
sg4
F0.0
sg5
F0.0
sg6
F0.0
sg7
F0.0
sg8
F27942.0
sg9
I00
sg10
F0.0
sg11
I0
sg13
F0.0
sg14
F-101250.0
sg15
F0.0
sg16
F0.0
sg17
F0.0
sg18
F0.0
sg19
F0.0
sg20
F101250.0
sg21
F0.0
sg22
F0.0
sg23
F0.0
sg24
F0.0
sg25
F0.0
sg26
F0.0
sg27
F27942.0
sg28
F0.0
ssS'STABLER FRANK'
p284
(dp285
g3
F0.0
sg4
F0.0
sg5
F0.0
sg6
F0.0
sg7
F0.0
sg8
F16514.0
sg9
I00
sg10
F0.0
sg11
S'frank.stabler@enron.com'
p286
sg13
F0.0
sg14
F0.0
sg15
F0.0
sg16
F0.0
sg17
F0.0
sg18
F0.0
sg19
F356071.0
sg20
F0.0
sg21
F500000.0
sg22
F511734.0
sg23
F0.0
sg24
F0.0
sg25
F511734.0
sg26
F239502.0
sg27
F1112087.0
sg28
F0.0
ssS'SKILLING JEFFREY K'
p287
(dp288
g3
F0.008271298593879239
sg4
F3627.0
sg5
F0.0
sg6
F0.0
sg7
F0.8148148148148148
sg8
F29336.0
sg9
I01
sg10
F1920000.0
sg11
S'jeff.skilling@enron.com'
p289
sg13
F88.0
sg14
F0.0
sg15
F0.0
sg16
F2042.0
sg17
F0.0
sg18
F108.0
sg19
F22122.0
sg20
F0.0
sg21
F5600000.0
sg22
F26093672.0
sg23
F33.583333333333336
sg24
F30.0
sg25
F6843672.0
sg26
F1111258.0
sg27
F8682716.0
sg28
F19250000.0
ssS'BLAKE JR. NORMAN P'
p290
(dp291
g3
F0.0
sg4
F0.0
sg5
F0.0
sg6
F0.0
sg7
F0.0
sg8
F1279.0
sg9
I00
sg10
F0.0
sg11
I0
sg13
F0.0
sg14
F-113784.0
sg15
F0.0
sg16
F0.0
sg17
F0.0
sg18
F0.0
sg19
F0.0
sg20
F113784.0
sg21
F0.0
sg22
F0.0
sg23
F0.0
sg24
F0.0
sg25
F0.0
sg26
F0.0
sg27
F1279.0
sg28
F0.0
ssS'SHERRICK JEFFREY B'
p292
(dp293
g3
F0.02936378466557912
sg4
F613.0
sg5
F0.0
sg6
F0.0
sg7
F1.56
sg8
F0.0
sg9
I00
sg10
F0.0
sg11
S'jeffrey.sherrick@enron.com'
p294
sg13
F39.0
sg14
F0.0
sg15
F0.0
sg16
F583.0
sg17
F0.0
sg18
F25.0
sg19
F0.0
sg20
F0.0
sg21
F0.0
sg22
F1832468.0
sg23
F24.52
sg24
F18.0
sg25
F405999.0
sg26
F0.0
sg27
F0.0
sg28
F1426469.0
ssS'PRENTICE JAMES'
p295
(dp296
g3
F0.0
sg4
F0.0
sg5
F1.0
sg6
F564348.0
sg7
F0.0
sg8
F0.0
sg9
I00
sg10
F0.0
sg11
S'james.prentice@enron.com'
p297
sg13
F0.0
sg14
F0.0
sg15
F0.0
sg16
F0.0
sg17
F0.0
sg18
F0.0
sg19
F0.0
sg20
F0.0
sg21
F0.0
sg22
F1095040.0
sg23
F0.0
sg24
F0.0
sg25
F208809.0
sg26
F0.0
sg27
F564348.0
sg28
F886231.0
ssS'GRAY RODNEY'
p298
(dp299
g3
F0.0
sg4
F0.0
sg5
F0.08161544244229753
sg6
F93585.0
sg7
F0.0
sg8
F0.0
sg9
I00
sg10
F365625.0
sg11
I0
sg13
F0.0
sg14
F0.0
sg15
F0.0
sg16
F0.0
sg17
F0.0
sg18
F0.0
sg19
F680833.0
sg20
F0.0
sg21
F0.0
sg22
F0.0
sg23
F0.0
sg24
F0.0
sg25
F0.0
sg26
F6615.0
sg27
F1146658.0
sg28
F0.0
ssS'PICKERING MARK R'
p300
(dp301
g3
F0.0
sg4
F898.0
sg5
F0.0
sg6
F0.0
sg7
F0.1044776119402985
sg8
F31653.0
sg9
I00
sg10
F0.0
sg11
S'mark.pickering@enron.com'
p302
sg13
F7.0
sg14
F0.0
sg15
F0.0
sg16
F728.0
sg17
F400000.0
sg18
F67.0
sg19
F0.0
sg20
F0.0
sg21
F300000.0
sg22
F28798.0
sg23
F13.402985074626866
sg24
F0.0
sg25
F0.0
sg26
F655037.0
sg27
F1386690.0
sg28
F28798.0
ssS'NOLES JAMES L'
p303
(dp304
g3
F0.0
sg4
F0.0
sg5
F1.0
sg6
F774401.0
sg7
F0.0
sg8
F0.0
sg9
I00
sg10
F0.0
sg11
I0
sg13
F0.0
sg14
F0.0
sg15
F-94556.0
sg16
F0.0
sg17
F0.0
sg18
F0.0
sg19
F0.0
sg20
F0.0
sg21
F0.0
sg22
F368705.0
sg23
F0.0
sg24
F0.0
sg25
F463261.0
sg26
F0.0
sg27
F774401.0
sg28
F0.0
ssS'KEAN STEVEN J'
p305
(dp306
g3
F0.03034342167163243
sg4
F12754.0
sg5
F0.0
sg6
F0.0
sg7
F0.020713123243083296
sg8
F41953.0
sg9
I00
sg10
F300000.0
sg11
S'steven.kean@enron.com'
p307
sg13
F140.0
sg14
F0.0
sg15
F0.0
sg16
F3639.0
sg17
F0.0
sg18
F6759.0
sg19
F1231.0
sg20
F0.0
sg21
F1000000.0
sg22
F6153642.0
sg23
F1.8869655274448882
sg24
F387.0
sg25
F4131594.0
sg26
F404338.0
sg27
F1747522.0
sg28
F2022048.0
ssS'FOWLER PEGGY'
p308
(dp309
g3
F0.0
sg4
F517.0
sg5
F0.0
sg6
F0.0
sg7
F0.0
sg8
F0.0
sg9
I00
sg10
F0.0
sg11
S'kulvinder.fowler@enron.com'
p310
sg13
F0.0
sg14
F0.0
sg15
F0.0
sg16
F10.0
sg17
F0.0
sg18
F36.0
sg19
F0.0
sg20
F0.0
sg21
F0.0
sg22
F1884748.0
sg23
F14.36111111111111
sg24
F0.0
sg25
F560170.0
sg26
F0.0
sg27
F0.0
sg28
F1324578.0
ssS'WASAFF GEORGE'
p311
(dp312
g3
F0.0175
sg4
F400.0
sg5
F0.8036572102533365
sg6
F831299.0
sg7
F0.7333333333333333
sg8
F0.0
sg9
I00
sg10
F200000.0
sg11
S'george.wasaff@enron.com'
p313
sg13
F22.0
sg14
F-583325.0
sg15
F0.0
sg16
F337.0
sg17
F0.0
sg18
F30.0
sg19
F1425.0
sg20
F0.0
sg21
F325000.0
sg22
F2056427.0
sg23
F13.333333333333334
sg24
F7.0
sg25
F388167.0
sg26
F259996.0
sg27
F1034395.0
sg28
F1668260.0
ssS'WHITE JR THOMAS E'
p314
(dp315
g3
F0.0
sg4
F0.0
sg5
F0.0
sg6
F0.0
sg7
F0.0
sg8
F81353.0
sg9
I00
sg10
F0.0
sg11
S'thomas.white@enron.com'
p316
sg13
F0.0
sg14
F0.0
sg15
F0.0
sg16
F0.0
sg17
F0.0
sg18
F0.0
sg19
F1085463.0
sg20
F0.0
sg21
F450000.0
sg22
F15144123.0
sg23
F0.0
sg24
F0.0
sg25
F13847074.0
sg26
F317543.0
sg27
F1934359.0
sg28
F1297049.0
ssS'CHRISTODOULOU DIOMEDES'
p317
(dp318
g3
F0.0
sg4
F0.0
sg5
F0.0
sg6
F0.0
sg7
F0.0
sg8
F0.0
sg9
I00
sg10
F0.0
sg11
S'diomedes.christodoulou@enron.com'
p319
sg13
F0.0
sg14
F0.0
sg15
F0.0
sg16
F0.0
sg17
F0.0
sg18
F0.0
sg19
F0.0
sg20
F0.0
sg21
F0.0
sg22
F6077885.0
sg23
F0.0
sg24
F0.0
sg25
F950730.0
sg26
F0.0
sg27
F0.0
sg28
F5127155.0
ssS'ALLEN PHILLIP K'
p320
(dp321
g3
F0.022398345968297727
sg4
F2902.0
sg5
F0.6399273309812012
sg6
F2869717.0
sg7
F0.0214123006833713
sg8
F13868.0
sg9
I00
sg10
F304805.0
sg11
S'phillip.allen@enron.com'
p322
sg13
F47.0
sg14
F-3081055.0
sg15
F-126027.0
sg16
F1407.0
sg17
F0.0
sg18
F2195.0
sg19
F152.0
sg20
F0.0
sg21
F4175000.0
sg22
F1729541.0
sg23
F1.3220956719817767
sg24
F65.0
sg25
F126027.0
sg26
F201955.0
sg27
F4484442.0
sg28
F1729541.0
ssS'SHARP VICTORIA T'
p323
(dp324
g3
F0.001913265306122449
sg4
F3136.0
sg5
F0.1189138547082767
sg6
F187469.0
sg7
F0.17647058823529413
sg8
F116337.0
sg9
I00
sg10
F422158.0
sg11
S'vicki.sharp@enron.com'
p325
sg13
F24.0
sg14
F0.0
sg15
F0.0
sg16
F2477.0
sg17
F0.0
sg18
F136.0
sg19
F2401.0
sg20
F0.0
sg21
F600000.0
sg22
F494136.0
sg23
F23.058823529411764
sg24
F6.0
sg25
F213063.0
sg26
F248146.0
sg27
F1576511.0
sg28
F281073.0
ssS'JAEDICKE ROBERT'
p326
(dp327
g3
F0.0
sg4
F0.0
sg5
F0.0
sg6
F0.0
sg7
F0.0
sg8
F0.0
sg9
I00
sg10
F0.0
sg11
I0
sg13
F0.0
sg14
F-25000.0
sg15
F-44093.0
sg16
F0.0
sg17
F0.0
sg18
F0.0
sg19
F0.0
sg20
F108750.0
sg21
F0.0
sg22
F431750.0
sg23
F0.0
sg24
F0.0
sg25
F44093.0
sg26
F0.0
sg27
F83750.0
sg28
F431750.0
ssS'WINOKUR JR. HERBERT S'
p328
(dp329
g3
F0.0
sg4
F0.0
sg5
F0.0
sg6
F0.0
sg7
F0.0
sg8
F1413.0
sg9
I00
sg10
F0.0
sg11
I0
sg13
F0.0
sg14
F-25000.0
sg15
F0.0
sg16
F0.0
sg17
F0.0
sg18
F0.0
sg19
F0.0
sg20
F108579.0
sg21
F0.0
sg22
F0.0
sg23
F0.0
sg24
F0.0
sg25
F0.0
sg26
F0.0
sg27
F84992.0
sg28
F0.0
ssS'BROWN MICHAEL'
p330
(dp331
g3
F0.0006729475100942127
sg4
F1486.0
sg5
F0.0
sg6
F0.0
sg7
F0.3170731707317073
sg8
F49288.0
sg9
I00
sg10
F0.0
sg11
S'michael.brown@enron.com'
p332
sg13
F13.0
sg14
F0.0
sg15
F0.0
sg16
F761.0
sg17
F0.0
sg18
F41.0
sg19
F0.0
sg20
F0.0
sg21
F0.0
sg22
F0.0
sg23
F36.24390243902439
sg24
F1.0
sg25
F0.0
sg26
F0.0
sg27
F49288.0
sg28
F0.0
ssS'BADUM JAMES P'
p333
(dp334
g3
F0.0
sg4
F0.0
sg5
F0.9808950708625168
sg6
F178980.0
sg7
F0.0
sg8
F3486.0
sg9
I00
sg10
F0.0
sg11
I0
sg13
F0.0
sg14
F0.0
sg15
F0.0
sg16
F0.0
sg17
F0.0
sg18
F0.0
sg19
F0.0
sg20
F0.0
sg21
F0.0
sg22
F257817.0
sg23
F0.0
sg24
F0.0
sg25
F0.0
sg26
F0.0
sg27
F182466.0
sg28
F257817.0
ssS'HUGHES JAMES A'
p335
(dp336
g3
F0.006954102920723227
sg4
F719.0
sg5
F0.0
sg6
F0.0
sg7
F1.0294117647058822
sg8
F0.0
sg9
I00
sg10
F0.0
sg11
S'james.hughes@enron.com'
p337
sg13
F35.0
sg14
F0.0
sg15
F0.0
sg16
F589.0
sg17
F0.0
sg18
F34.0
sg19
F0.0
sg20
F0.0
sg21
F0.0
sg22
F1118394.0
sg23
F21.147058823529413
sg24
F5.0
sg25
F363428.0
sg26
F0.0
sg27
F0.0
sg28
F754966.0
ssS'REYNOLDS LAWRENCE'
p338
(dp339
g3
F0.0
sg4
F0.0
sg5
F0.13021103998985994
sg6
F51365.0
sg7
F0.0
sg8
F8409.0
sg9
I00
sg10
F156250.0
sg11
I0
sg13
F0.0
sg14
F-200000.0
sg15
F-140264.0
sg16
F0.0
sg17
F0.0
sg18
F0.0
sg19
F202052.0
sg20
F0.0
sg21
F100000.0
sg22
F4221891.0
sg23
F0.0
sg24
F0.0
sg25
F201483.0
sg26
F76399.0
sg27
F394475.0
sg28
F4160672.0
ssS'DIMICHELE RICHARD G'
p340
(dp341
g3
F0.0
sg4
F0.0
sg5
F0.0
sg6
F0.0
sg7
F0.0
sg8
F35812.0
sg9
I00
sg10
F694862.0
sg11
S'richard.dimichele@enron.com'
p342
sg13
F0.0
sg14
F0.0
sg15
F0.0
sg16
F0.0
sg17
F0.0
sg18
F0.0
sg19
F374689.0
sg20
F0.0
sg21
F1000000.0
sg22
F8317782.0
sg23
F0.0
sg24
F0.0
sg25
F126027.0
sg26
F262788.0
sg27
F2368151.0
sg28
F8191755.0
ssS'BHATNAGAR SANJAY'
p343
(dp344
g3
F0.0019120458891013384
sg4
F523.0
sg5
F0.0
sg6
F0.0
sg7
F0.0
sg8
F0.0
sg9
I00
sg10
F0.0
sg11
S'sanjay.bhatnagar@enron.com'
p345
sg13
F0.0
sg14
F0.0
sg15
F15456290.0
sg16
F463.0
sg17
F0.0
sg18
F29.0
sg19
F137864.0
sg20
F137864.0
sg21
F0.0
sg22
F0.0
sg23
F18.03448275862069
sg24
F1.0
sg25
F-2604490.0
sg26
F0.0
sg27
F15456290.0
sg28
F2604490.0
ssS'CARTER REBECCA C'
p346
(dp347
g3
F0.022435897435897436
sg4
F312.0
sg5
F0.0
sg6
F0.0
sg7
F1.9333333333333333
sg8
F0.0
sg9
I00
sg10
F75000.0
sg11
S'rebecca.carter@enron.com'
p348
sg13
F29.0
sg14
F-159792.0
sg15
F-307301.0
sg16
F196.0
sg17
F0.0
sg18
F15.0
sg19
F540.0
sg20
F0.0
sg21
F300000.0
sg22
F0.0
sg23
F20.8
sg24
F7.0
sg25
F307301.0
sg26
F261809.0
sg27
F477557.0
sg28
F0.0
ssS'BUCHANAN HAROLD G'
p349
(dp350
g3
F0.0
sg4
F1088.0
sg5
F0.0
sg6
F0.0
sg7
F0.0
sg8
F600.0
sg9
I00
sg10
F304805.0
sg11
S'john.buchanan@enron.com'
p351
sg13
F0.0
sg14
F0.0
sg15
F0.0
sg16
F23.0
sg17
F0.0
sg18
F125.0
sg19
F1215.0
sg20
F0.0
sg21
F500000.0
sg22
F1014505.0
sg23
F8.704
sg24
F0.0
sg25
F189041.0
sg26
F248017.0
sg27
F1054637.0
sg28
F825464.0
ssS'YEAP SOON'
p352
(dp353
g3
F0.0
sg4
F0.0
sg5
F0.0
sg6
F0.0
sg7
F0.0
sg8
F55097.0
sg9
I00
sg10
F0.0
sg11
I0
sg13
F0.0
sg14
F0.0
sg15
F0.0
sg16
F0.0
sg17
F0.0
sg18
F0.0
sg19
F0.0
sg20
F0.0
sg21
F0.0
sg22
F192758.0
sg23
F0.0
sg24
F0.0
sg25
F0.0
sg26
F0.0
sg27
F55097.0
sg28
F192758.0
ssS'MURRAY JULIA H'
p354
(dp355
g3
F0.0009124087591240876
sg4
F2192.0
sg5
F0.0
sg6
F0.0
sg7
F0.24444444444444444
sg8
F57580.0
sg9
I00
sg10
F125000.0
sg11
S'julia.murray@enron.com'
p356
sg13
F11.0
sg14
F0.0
sg15
F0.0
sg16
F395.0
sg17
F0.0
sg18
F45.0
sg19
F330.0
sg20
F0.0
sg21
F400000.0
sg22
F597461.0
sg23
F48.71111111111111
sg24
F2.0
sg25
F196983.0
sg26
F229284.0
sg27
F812194.0
sg28
F400478.0
ssS'GARLAND C KEVIN'
p357
(dp358
g3
F0.1291866028708134
sg4
F209.0
sg5
F0.0
sg6
F0.0
sg7
F0.22727272727272727
sg8
F48405.0
sg9
I00
sg10
F375304.0
sg11
S'kevin.garland@enron.com'
p359
sg13
F10.0
sg14
F0.0
sg15
F0.0
sg16
F178.0
sg17
F0.0
sg18
F44.0
sg19
F60814.0
sg20
F0.0
sg21
F850000.0
sg22
F896153.0
sg23
F4.75
sg24
F27.0
sg25
F259907.0
sg26
F231946.0
sg27
F1566469.0
sg28
F636246.0
ssS'DODSON KEITH'
p360
(dp361
g3
F0.017045454545454544
sg4
F176.0
sg5
F0.0
sg6
F0.0
sg7
F0.7142857142857143
sg8
F28164.0
sg9
I00
sg10
F0.0
sg11
S'keith.dodson@enron.com'
p362
sg13
F10.0
sg14
F0.0
sg15
F0.0
sg16
F114.0
sg17
F0.0
sg18
F14.0
sg19
F774.0
sg20
F0.0
sg21
F70000.0
sg22
F0.0
sg23
F12.571428571428571
sg24
F3.0
sg25
F0.0
sg26
F221003.0
sg27
F319941.0
sg28
F0.0
ssS'YEAGER F SCOTT'
p363
(dp364
g3
F0.0
sg4
F0.0
sg5
F0.0
sg6
F0.0
sg7
F0.0
sg8
F53947.0
sg9
I01
sg10
F0.0
sg11
S'scott.yeager@enron.com'
p365
sg13
F0.0
sg14
F0.0
sg15
F0.0
sg16
F0.0
sg17
F0.0
sg18
F0.0
sg19
F147950.0
sg20
F0.0
sg21
F0.0
sg22
F11884758.0
sg23
F0.0
sg24
F0.0
sg25
F3576206.0
sg26
F158403.0
sg27
F360300.0
sg28
F8308552.0
ssS'HIRKO JOSEPH'
p366
(dp367
g3
F0.0
sg4
F0.0
sg5
F0.1126211673783935
sg6
F10259.0
sg7
F0.0
sg8
F77978.0
sg9
I01
sg10
F0.0
sg11
S'joe.hirko@enron.com'
p368
sg13
F0.0
sg14
F0.0
sg15
F0.0
sg16
F0.0
sg17
F0.0
sg18
F0.0
sg19
F2856.0
sg20
F0.0
sg21
F0.0
sg22
F30766064.0
sg23
F0.0
sg24
F0.0
sg25
F0.0
sg26
F0.0
sg27
F91093.0
sg28
F30766064.0
ssS'DIETRICH JANET R'
p369
(dp370
g3
F0.005443234836702955
sg4
F2572.0
sg5
F0.0
sg6
F0.0
sg7
F4.841269841269841
sg8
F3475.0
sg9
I00
sg10
F556416.0
sg11
S'janet.dietrich@enron.com'
p371
sg13
F305.0
sg14
F0.0
sg15
F0.0
sg16
F1902.0
sg17
F0.0
sg18
F63.0
sg19
F473.0
sg20
F0.0
sg21
F600000.0
sg22
F1865087.0
sg23
F40.82539682539682
sg24
F14.0
sg25
F315068.0
sg26
F250100.0
sg27
F1410464.0
sg28
F1550019.0
ssS'DERRICK JR. JAMES V'
p372
(dp373
g3
F0.009170105456212746
sg4
F2181.0
sg5
F0.0
sg6
F0.0
sg7
F0.0704070407040704
sg8
F51124.0
sg9
I00
sg10
F484000.0
sg11
S'james.derrick@enron.com'
p374
sg13
F64.0
sg14
F-1284000.0
sg15
F-1787380.0
sg16
F1401.0
sg17
F0.0
sg18
F909.0
sg19
F7482.0
sg20
F0.0
sg21
F800000.0
sg22
F8831913.0
sg23
F2.3993399339933994
sg24
F20.0
sg25
F1787380.0
sg26
F492375.0
sg27
F550981.0
sg28
F8831913.0
ssS'FREVERT MARK A'
p375
(dp376
g3
F0.00183206106870229
sg4
F3275.0
sg5
F0.37252449350906797
sg6
F6426990.0
sg7
F11.523809523809524
sg8
F86987.0
sg9
I00
sg10
F1617011.0
sg11
S'mark.frevert@enron.com'
p377
sg13
F242.0
sg14
F-3367011.0
sg15
F0.0
sg16
F2979.0
sg17
F2000000.0
sg18
F21.0
sg19
F7427621.0
sg20
F0.0
sg21
F2000000.0
sg22
F14622185.0
sg23
F155.95238095238096
sg24
F6.0
sg25
F4188667.0
sg26
F1060932.0
sg27
F17252530.0
sg28
F10433518.0
ssS'PAI LOU L'
p378
(dp379
g3
F0.0
sg4
F0.0
sg5
F0.0
sg6
F0.0
sg7
F0.0
sg8
F32047.0
sg9
I00
sg10
F0.0
sg11
S'lou.pai@enron.com'
p380
sg13
F0.0
sg14
F0.0
sg15
F0.0
sg16
F0.0
sg17
F0.0
sg18
F0.0
sg19
F1829457.0
sg20
F0.0
sg21
F1000000.0
sg22
F23817930.0
sg23
F0.0
sg24
F0.0
sg25
F8453763.0
sg26
F261879.0
sg27
F3123383.0
sg28
F15364167.0
ssS'BAY FRANKLIN R'
p381
(dp382
g3
F0.0
sg4
F0.0
sg5
F0.3146747114882759
sg6
F260455.0
sg7
F0.0
sg8
F129142.0
sg9
I00
sg10
F0.0
sg11
S'frank.bay@enron.com'
p383
sg13
F0.0
sg14
F-201641.0
sg15
F-82782.0
sg16
F0.0
sg17
F0.0
sg18
F0.0
sg19
F69.0
sg20
F0.0
sg21
F400000.0
sg22
F63014.0
sg23
F0.0
sg24
F0.0
sg25
F145796.0
sg26
F239671.0
sg27
F827696.0
sg28
F0.0
ssS'HAYSLETT RODERICK J'
p384
(dp385
g3
F0.014345035862589657
sg4
F2649.0
sg5
F0.0
sg6
F0.0
sg7
F0.03298774740810556
sg8
F0.0
sg9
I00
sg10
F0.0
sg11
S'rod.hayslett@enron.com'
p386
sg13
F35.0
sg14
F0.0
sg15
F0.0
sg16
F571.0
sg17
F0.0
sg18
F1061.0
sg19
F0.0
sg20
F0.0
sg21
F0.0
sg22
F346663.0
sg23
F2.4967012252591894
sg24
F38.0
sg25
F346663.0
sg26
F0.0
sg27
F0.0
sg28
F0.0
ssS'FUGH JOHN L'
p387
(dp388
g3
F0.0
sg4
F0.0
sg5
F1.0
sg6
F50591.0
sg7
F0.0
sg8
F0.0
sg9
I00
sg10
F0.0
sg11
I0
sg13
F0.0
sg14
F0.0
sg15
F0.0
sg16
F0.0
sg17
F0.0
sg18
F0.0
sg19
F0.0
sg20
F0.0
sg21
F0.0
sg22
F176378.0
sg23
F0.0
sg24
F0.0
sg25
F0.0
sg26
F0.0
sg27
F50591.0
sg28
F176378.0
ssS'FALLON JAMES B'
p389
(dp390
g3
F0.021082621082621083
sg4
F1755.0
sg5
F0.0
sg6
F0.0
sg7
F0.56
sg8
F95924.0
sg9
I00
sg10
F374347.0
sg11
S'jim.fallon@enron.com'
p391
sg13
F42.0
sg14
F0.0
sg15
F0.0
sg16
F1604.0
sg17
F0.0
sg18
F75.0
sg19
F401481.0
sg20
F0.0
sg21
F2500000.0
sg22
F2332399.0
sg23
F23.4
sg24
F37.0
sg25
F1392142.0
sg26
F304588.0
sg27
F3676340.0
sg28
F940257.0
ssS'KOENIG MARK E'
p392
(dp393
g3
F0.006318449873631003
sg4
F2374.0
sg5
F0.0
sg6
F0.0
sg7
F0.8688524590163934
sg8
F127017.0
sg9
I01
sg10
F300000.0
sg11
S'mark.koenig@enron.com'
p394
sg13
F53.0
sg14
F0.0
sg15
F0.0
sg16
F2271.0
sg17
F0.0
sg18
F61.0
sg19
F150458.0
sg20
F0.0
sg21
F700000.0
sg22
F1920055.0
sg23
F38.91803278688525
sg24
F15.0
sg25
F1248318.0
sg26
F309946.0
sg27
F1587421.0
sg28
F671737.0
ssS'SAVAGE FRANK'
p395
(dp396
g3
F0.0
sg4
F0.0
sg5
F0.0
sg6
F0.0
sg7
F0.0
sg8
F0.0
sg9
I00
sg10
F0.0
sg11
I0
sg13
F0.0
sg14
F-121284.0
sg15
F0.0
sg16
F0.0
sg17
F0.0
sg18
F0.0
sg19
F0.0
sg20
F125034.0
sg21
F0.0
sg22
F0.0
sg23
F0.0
sg24
F0.0
sg25
F0.0
sg26
F0.0
sg27
F3750.0
sg28
F0.0
ssS'IZZO LAWRENCE L'
p397
(dp398
g3
F0.010080645161290322
sg4
F496.0
sg5
F0.0
sg6
F0.0
sg7
F1.4736842105263157
sg8
F28093.0
sg9
I00
sg10
F312500.0
sg11
S'larry.izzo@enron.com'
p399
sg13
F28.0
sg14
F0.0
sg15
F0.0
sg16
F437.0
sg17
F0.0
sg18
F19.0
sg19
F1553729.0
sg20
F0.0
sg21
F0.0
sg22
F5819980.0
sg23
F26.105263157894736
sg24
F5.0
sg25
F3654808.0
sg26
F85274.0
sg27
F1979596.0
sg28
F2165172.0
ssS'TILNEY ELIZABETH A'
p400
(dp401
g3
F0.02391304347826087
sg4
F460.0
sg5
F0.0
sg6
F0.0
sg7
F0.5263157894736842
sg8
F0.0
sg9
I00
sg10
F275000.0
sg11
S'elizabeth.tilney@enron.com'
p402
sg13
F10.0
sg14
F-575000.0
sg15
F0.0
sg16
F379.0
sg17
F0.0
sg18
F19.0
sg19
F152055.0
sg20
F0.0
sg21
F300000.0
sg22
F1168042.0
sg23
F24.210526315789473
sg24
F11.0
sg25
F576792.0
sg26
F247338.0
sg27
F399393.0
sg28
F591250.0
ssS'MARTIN AMANDA K'
p403
(dp404
g3
F0.0
sg4
F1522.0
sg5
F0.010161750614010964
sg6
F85430.0
sg7
F0.034782608695652174
sg8
F8211.0
sg9
I00
sg10
F5145434.0
sg11
S'a..martin@enron.com'
p405
sg13
F8.0
sg14
F0.0
sg15
F0.0
sg16
F477.0
sg17
F0.0
sg18
F230.0
sg19
F2818454.0
sg20
F0.0
sg21
F0.0
sg22
F2070306.0
sg23
F6.6173913043478265
sg24
F0.0
sg25
F0.0
sg26
F349487.0
sg27
F8407016.0
sg28
F2070306.0
ssS'BUY RICHARD B'
p406
(dp407
g3
F0.02015327845586148
sg4
F3523.0
sg5
F0.27574964914917083
sg6
F649584.0
sg7
F0.14814814814814814
sg8
F0.0
sg9
I00
sg10
F769862.0
sg11
S'rick.buy@enron.com'
p408
sg13
F156.0
sg14
F-694862.0
sg15
F0.0
sg16
F2333.0
sg17
F0.0
sg18
F1053.0
sg19
F400572.0
sg20
F0.0
sg21
F900000.0
sg22
F3444470.0
sg23
F3.345679012345679
sg24
F71.0
sg25
F901657.0
sg26
F330546.0
sg27
F2355702.0
sg28
F2542813.0
ssS'GRAMM WENDY L'
p409
(dp410
g3
F0.0
sg4
F0.0
sg5
F0.0
sg6
F0.0
sg7
F0.0
sg8
F0.0
sg9
I00
sg10
F0.0
sg11
I0
sg13
F0.0
sg14
F0.0
sg15
F0.0
sg16
F0.0
sg17
F0.0
sg18
F0.0
sg19
F0.0
sg20
F119292.0
sg21
F0.0
sg22
F0.0
sg23
F0.0
sg24
F0.0
sg25
F0.0
sg26
F0.0
sg27
F119292.0
sg28
F0.0
ssS'CAUSEY RICHARD A'
p411
(dp412
g3
F0.006342494714587738
sg4
F1892.0
sg5
F0.0
sg6
F0.0
sg7
F1.183673469387755
sg8
F30674.0
sg9
I01
sg10
F350000.0
sg11
S'richard.causey@enron.com'
p413
sg13
F58.0
sg14
F-235000.0
sg15
F0.0
sg16
F1585.0
sg17
F0.0
sg18
F49.0
sg19
F307895.0
sg20
F0.0
sg21
F1000000.0
sg22
F2502063.0
sg23
F38.61224489795919
sg24
F12.0
sg25
F2502063.0
sg26
F415189.0
sg27
F1868758.0
sg28
F0.0
ssS'TAYLOR MITCHELL S'
p414
(dp415
g3
F0.0
sg4
F533.0
sg5
F0.20816024702950497
sg6
F227449.0
sg7
F0.0
sg8
F0.0
sg9
I00
sg10
F0.0
sg11
S'mitchell.taylor@enron.com'
p416
sg13
F0.0
sg14
F0.0
sg15
F0.0
sg16
F300.0
sg17
F0.0
sg18
F29.0
sg19
F0.0
sg20
F0.0
sg21
F600000.0
sg22
F3745048.0
sg23
F18.379310344827587
sg24
F0.0
sg25
F563798.0
sg26
F265214.0
sg27
F1092663.0
sg28
F3181250.0
ssS'DONAHUE JR JEFFREY M'
p417
(dp418
g3
F0.012716763005780347
sg4
F865.0
sg5
F0.0
sg6
F0.0
sg7
F8.545454545454545
sg8
F96268.0
sg9
I00
sg10
F0.0
sg11
S'jeff.donahue@enron.com'
p419
sg13
F188.0
sg14
F-300000.0
sg15
F0.0
sg16
F772.0
sg17
F0.0
sg18
F22.0
sg19
F891.0
sg20
F0.0
sg21
F800000.0
sg22
F1080988.0
sg23
F39.31818181818182
sg24
F11.0
sg25
F315068.0
sg26
F278601.0
sg27
F875760.0
sg28
F765920.0
ssS'GLISAN JR BEN F'
p420
(dp421
g3
F0.006872852233676976
sg4
F873.0
sg5
F0.0
sg6
F0.0
sg7
F3.25
sg8
F125978.0
sg9
I01
sg10
F71023.0
sg11
S'ben.glisan@enron.com'
p422
sg13
F52.0
sg14
F0.0
sg15
F0.0
sg16
F874.0
sg17
F0.0
sg18
F16.0
sg19
F200308.0
sg20
F0.0
sg21
F600000.0
sg22
F778546.0
sg23
F54.5625
sg24
F6.0
sg25
F393818.0
sg26
F274975.0
sg27
F1272284.0
sg28
F384728.0
ss.