(lp0
S'poi'
p1
aS'to_messages'
p2
aS'shared_receipt_with_poi'
p3
aS'from_messages'
p4
aS'from_this_person_to_poi'
p5
aS'from_poi_to_this_person'
p6
aS'message_ratio'
p7
aS'poi_from_ratio'
p8
aS'poi_to_ratio'
p9
a.